GAS LISTING C:\Users\kees2125\AppData\Local\Temp/cccfvQxc.s 			page 1


   1               		.file	"ledmatrix.c"
   2               		.arch atmega128
   3               	__SREG__ = 0x3f
   4               	__SP_H__ = 0x3e
   5               	__SP_L__ = 0x3d
   6               	__tmp_reg__ = 0
   7               	__zero_reg__ = 1
   8               		.global __do_copy_data
   9               		.global __do_clear_bss
  10               		.section	.debug_abbrev,"",@progbits
  11               	.Ldebug_abbrev0:
  12               		.section	.debug_info,"",@progbits
  13               	.Ldebug_info0:
  14               		.section	.debug_line,"",@progbits
  15               	.Ldebug_line0:
  16               		.text
  17               	.Ltext0:
  18               	.global	twi_init
  19               		.type	twi_init, @function
  20               	twi_init:
  21               	.LFB6:
  22               	.LM1:
  23               	/* prologue: frame size=0 */
  24               	/* prologue end (size=0) */
  25               	.LM2:
  26 0000 1092 7100 		sts 113,__zero_reg__
  27               	.LM3:
  28 0004 80E2      		ldi r24,lo8(32)
  29 0006 8093 7000 		sts 112,r24
  30               	/* epilogue: frame size=0 */
  31 000a 0895      		ret
  32               	/* epilogue end (size=1) */
  33               	/* function twi_init size 6 (5) */
  34               	.LFE6:
  35               		.size	twi_init, .-twi_init
  36               	.global	twi_start
  37               		.type	twi_start, @function
  38               	twi_start:
  39               	.LFB7:
  40               	.LM4:
  41               	/* prologue: frame size=0 */
  42               	/* prologue end (size=0) */
  43               	.LM5:
  44 000c 84EA      		ldi r24,lo8(-92)
  45 000e 8093 7400 		sts 116,r24
  46               	.L4:
  47               	.LM6:
  48 0012 8091 7400 		lds r24,116
  49 0016 87FF      		sbrs r24,7
  50 0018 00C0      		rjmp .L4
  51               	/* epilogue: frame size=0 */
  52 001a 0895      		ret
  53               	/* epilogue end (size=1) */
  54               	/* function twi_start size 8 (7) */
  55               	.LFE7:
  56               		.size	twi_start, .-twi_start
  57               	.global	twi_stop
GAS LISTING C:\Users\kees2125\AppData\Local\Temp/cccfvQxc.s 			page 2


  58               		.type	twi_stop, @function
  59               	twi_stop:
  60               	.LFB8:
  61               	.LM7:
  62               	/* prologue: frame size=0 */
  63               	/* prologue end (size=0) */
  64               	.LM8:
  65 001c 84E9      		ldi r24,lo8(-108)
  66 001e 8093 7400 		sts 116,r24
  67               	/* epilogue: frame size=0 */
  68 0022 0895      		ret
  69               	/* epilogue end (size=1) */
  70               	/* function twi_stop size 4 (3) */
  71               	.LFE8:
  72               		.size	twi_stop, .-twi_stop
  73               	.global	twi_tx
  74               		.type	twi_tx, @function
  75               	twi_tx:
  76               	.LFB9:
  77               	.LM9:
  78               	/* prologue: frame size=0 */
  79               	/* prologue end (size=0) */
  80               	.LVL0:
  81               	.LM10:
  82 0024 8093 7300 		sts 115,r24
  83               	.LM11:
  84 0028 84E8      		ldi r24,lo8(-124)
  85               	.LVL1:
  86 002a 8093 7400 		sts 116,r24
  87               	.L12:
  88               	.LM12:
  89 002e 8091 7400 		lds r24,116
  90 0032 87FF      		sbrs r24,7
  91 0034 00C0      		rjmp .L12
  92               	/* epilogue: frame size=0 */
  93 0036 0895      		ret
  94               	/* epilogue end (size=1) */
  95               	/* function twi_tx size 10 (9) */
  96               	.LFE9:
  97               		.size	twi_tx, .-twi_tx
  98               	.global	wait
  99               		.type	wait, @function
 100               	wait:
 101               	.LFB10:
 102               	.LM13:
 103               	/* prologue: frame size=0 */
 104               	/* prologue end (size=0) */
 105               	.LVL2:
 106 0038 AC01      		movw r20,r24
 107 003a 20E0      		ldi r18,lo8(0)
 108 003c 30E0      		ldi r19,hi8(0)
 109               	.LVL3:
 110 003e E0ED      		ldi r30,lo8(2000)
 111 0040 F7E0      		ldi r31,hi8(2000)
 112 0042 00C0      		rjmp .L18
 113               	.LVL4:
 114               	.L19:
GAS LISTING C:\Users\kees2125\AppData\Local\Temp/cccfvQxc.s 			page 3


 115               	.LBB89:
 116               	.LBB90:
 117               	.LBB91:
 118               	.LBB92:
 119               	.LBB93:
 120               	.LM14:
 121 0044 CF01      		movw r24,r30
 122               	/* #APP */
 123 0046 0197      		1: sbiw r24,1
 124 0048 01F4      		brne 1b
 125               	/* #NOAPP */
 126               	.LBE93:
 127               	.LBE92:
 128               	.LBE91:
 129               	.LBE90:
 130               	.LM15:
 131 004a 2F5F      		subi r18,lo8(-(1))
 132 004c 3F4F      		sbci r19,hi8(-(1))
 133               	.LVL5:
 134               	.L18:
 135 004e 2417      		cp r18,r20
 136 0050 3507      		cpc r19,r21
 137 0052 04F0      		brlt .L19
 138               	.LBE89:
 139               	/* epilogue: frame size=0 */
 140 0054 0895      		ret
 141               	/* epilogue end (size=1) */
 142               	/* function wait size 17 (16) */
 143               	.LFE10:
 144               		.size	wait, .-wait
 145               	.global	setLedRow
 146               		.type	setLedRow, @function
 147               	setLedRow:
 148               	.LFB11:
 149               	.LM16:
 150               	/* prologue: frame size=0 */
 151               	/* prologue end (size=0) */
 152               	.LVL6:
 153               	.LM17:
 154 0056 FC01      		movw r30,r24
 155 0058 3197      		sbiw r30,1
 156 005a E830      		cpi r30,8
 157 005c F105      		cpc r31,__zero_reg__
 158 005e 00F0      		brlo .+2
 159 0060 00C0      		rjmp .L97
 160               	.LM18:
 161 0062 E050      		subi r30,lo8(-(gs(.L32)))
 162 0064 F040      		sbci r31,hi8(-(gs(.L32)))
 163 0066 0C94 0000 		jmp __tablejump2__
 164               		.data
 165               		.section .progmem.gcc_sw_table, "a", @progbits
 166               		.p2align 1
 167               	.L32:
 168               		.data
 169               		.section .progmem.gcc_sw_table, "a", @progbits
 170               		.p2align 1
 171 0000 0000      		.word gs(.L24)
GAS LISTING C:\Users\kees2125\AppData\Local\Temp/cccfvQxc.s 			page 4


 172 0002 0000      		.word gs(.L25)
 173 0004 0000      		.word gs(.L26)
 174 0006 0000      		.word gs(.L27)
 175 0008 0000      		.word gs(.L28)
 176 000a 0000      		.word gs(.L29)
 177 000c 0000      		.word gs(.L30)
 178 000e 0000      		.word gs(.L31)
 179               		.text
 180               	.L24:
 181               	.LBB94:
 182               	.LBB95:
 183               	.LM19:
 184 006a 84EA      		ldi r24,lo8(-92)
 185               	.LVL7:
 186 006c 8093 7400 		sts 116,r24
 187               	.L33:
 188               	.LM20:
 189 0070 8091 7400 		lds r24,116
 190 0074 87FF      		sbrs r24,7
 191 0076 00C0      		rjmp .L33
 192               	.LBE95:
 193               	.LBE94:
 194               	.LBB96:
 195               	.LBB97:
 196               	.LM21:
 197 0078 80EE      		ldi r24,lo8(-32)
 198 007a 8093 7300 		sts 115,r24
 199               	.LM22:
 200 007e 84E8      		ldi r24,lo8(-124)
 201 0080 8093 7400 		sts 116,r24
 202               	.L35:
 203               	.LM23:
 204 0084 8091 7400 		lds r24,116
 205 0088 87FF      		sbrs r24,7
 206 008a 00C0      		rjmp .L35
 207               	.LBE97:
 208               	.LBE96:
 209               	.LBB98:
 210               	.LBB99:
 211               	.LM24:
 212 008c 1092 7300 		sts 115,__zero_reg__
 213               	.LM25:
 214 0090 84E8      		ldi r24,lo8(-124)
 215 0092 8093 7400 		sts 116,r24
 216               	.L37:
 217               	.LM26:
 218 0096 8091 7400 		lds r24,116
 219 009a 87FF      		sbrs r24,7
 220 009c 00C0      		rjmp .L37
 221               	.LBE99:
 222               	.LBE98:
 223               	.LBB100:
 224               	.LBB101:
 225               	.LM27:
 226 009e 6093 7300 		sts 115,r22
 227               	.LM28:
 228 00a2 84E8      		ldi r24,lo8(-124)
GAS LISTING C:\Users\kees2125\AppData\Local\Temp/cccfvQxc.s 			page 5


 229 00a4 8093 7400 		sts 116,r24
 230               	.L39:
 231               	.LM29:
 232 00a8 8091 7400 		lds r24,116
 233 00ac 87FF      		sbrs r24,7
 234 00ae 00C0      		rjmp .L39
 235 00b0 00C0      		rjmp .L162
 236               	.LVL8:
 237               	.L25:
 238               	.LBE101:
 239               	.LBE100:
 240               	.LBB102:
 241               	.LBB103:
 242               	.LM30:
 243 00b2 84EA      		ldi r24,lo8(-92)
 244               	.LVL9:
 245 00b4 8093 7400 		sts 116,r24
 246               	.L41:
 247               	.LM31:
 248 00b8 8091 7400 		lds r24,116
 249 00bc 87FF      		sbrs r24,7
 250 00be 00C0      		rjmp .L41
 251               	.LBE103:
 252               	.LBE102:
 253               	.LBB104:
 254               	.LBB105:
 255               	.LM32:
 256 00c0 80EE      		ldi r24,lo8(-32)
 257 00c2 8093 7300 		sts 115,r24
 258               	.LM33:
 259 00c6 84E8      		ldi r24,lo8(-124)
 260 00c8 8093 7400 		sts 116,r24
 261               	.L43:
 262               	.LM34:
 263 00cc 8091 7400 		lds r24,116
 264 00d0 87FF      		sbrs r24,7
 265 00d2 00C0      		rjmp .L43
 266               	.LBE105:
 267               	.LBE104:
 268               	.LBB106:
 269               	.LBB107:
 270               	.LM35:
 271 00d4 82E0      		ldi r24,lo8(2)
 272 00d6 8093 7300 		sts 115,r24
 273               	.LM36:
 274 00da 84E8      		ldi r24,lo8(-124)
 275 00dc 8093 7400 		sts 116,r24
 276               	.L45:
 277               	.LM37:
 278 00e0 8091 7400 		lds r24,116
 279 00e4 87FF      		sbrs r24,7
 280 00e6 00C0      		rjmp .L45
 281               	.LBE107:
 282               	.LBE106:
 283               	.LBB108:
 284               	.LBB109:
 285               	.LM38:
GAS LISTING C:\Users\kees2125\AppData\Local\Temp/cccfvQxc.s 			page 6


 286 00e8 6093 7300 		sts 115,r22
 287               	.LM39:
 288 00ec 84E8      		ldi r24,lo8(-124)
 289 00ee 8093 7400 		sts 116,r24
 290               	.L47:
 291               	.LM40:
 292 00f2 8091 7400 		lds r24,116
 293 00f6 87FF      		sbrs r24,7
 294 00f8 00C0      		rjmp .L47
 295 00fa 00C0      		rjmp .L162
 296               	.LVL10:
 297               	.L26:
 298               	.LBE109:
 299               	.LBE108:
 300               	.LBB110:
 301               	.LBB111:
 302               	.LM41:
 303 00fc 84EA      		ldi r24,lo8(-92)
 304               	.LVL11:
 305 00fe 8093 7400 		sts 116,r24
 306               	.L49:
 307               	.LM42:
 308 0102 8091 7400 		lds r24,116
 309 0106 87FF      		sbrs r24,7
 310 0108 00C0      		rjmp .L49
 311               	.LBE111:
 312               	.LBE110:
 313               	.LBB112:
 314               	.LBB113:
 315               	.LM43:
 316 010a 80EE      		ldi r24,lo8(-32)
 317 010c 8093 7300 		sts 115,r24
 318               	.LM44:
 319 0110 84E8      		ldi r24,lo8(-124)
 320 0112 8093 7400 		sts 116,r24
 321               	.L51:
 322               	.LM45:
 323 0116 8091 7400 		lds r24,116
 324 011a 87FF      		sbrs r24,7
 325 011c 00C0      		rjmp .L51
 326               	.LBE113:
 327               	.LBE112:
 328               	.LBB114:
 329               	.LBB115:
 330               	.LM46:
 331 011e 84E0      		ldi r24,lo8(4)
 332 0120 8093 7300 		sts 115,r24
 333               	.LM47:
 334 0124 84E8      		ldi r24,lo8(-124)
 335 0126 8093 7400 		sts 116,r24
 336               	.L53:
 337               	.LM48:
 338 012a 8091 7400 		lds r24,116
 339 012e 87FF      		sbrs r24,7
 340 0130 00C0      		rjmp .L53
 341               	.LBE115:
 342               	.LBE114:
GAS LISTING C:\Users\kees2125\AppData\Local\Temp/cccfvQxc.s 			page 7


 343               	.LBB116:
 344               	.LBB117:
 345               	.LM49:
 346 0132 6093 7300 		sts 115,r22
 347               	.LM50:
 348 0136 84E8      		ldi r24,lo8(-124)
 349 0138 8093 7400 		sts 116,r24
 350               	.L55:
 351               	.LM51:
 352 013c 8091 7400 		lds r24,116
 353 0140 87FF      		sbrs r24,7
 354 0142 00C0      		rjmp .L55
 355 0144 00C0      		rjmp .L162
 356               	.LVL12:
 357               	.L27:
 358               	.LBE117:
 359               	.LBE116:
 360               	.LBB118:
 361               	.LBB119:
 362               	.LM52:
 363 0146 84EA      		ldi r24,lo8(-92)
 364               	.LVL13:
 365 0148 8093 7400 		sts 116,r24
 366               	.L57:
 367               	.LM53:
 368 014c 8091 7400 		lds r24,116
 369 0150 87FF      		sbrs r24,7
 370 0152 00C0      		rjmp .L57
 371               	.LBE119:
 372               	.LBE118:
 373               	.LBB120:
 374               	.LBB121:
 375               	.LM54:
 376 0154 80EE      		ldi r24,lo8(-32)
 377 0156 8093 7300 		sts 115,r24
 378               	.LM55:
 379 015a 84E8      		ldi r24,lo8(-124)
 380 015c 8093 7400 		sts 116,r24
 381               	.L59:
 382               	.LM56:
 383 0160 8091 7400 		lds r24,116
 384 0164 87FF      		sbrs r24,7
 385 0166 00C0      		rjmp .L59
 386               	.LBE121:
 387               	.LBE120:
 388               	.LBB122:
 389               	.LBB123:
 390               	.LM57:
 391 0168 86E0      		ldi r24,lo8(6)
 392 016a 8093 7300 		sts 115,r24
 393               	.LM58:
 394 016e 84E8      		ldi r24,lo8(-124)
 395 0170 8093 7400 		sts 116,r24
 396               	.L61:
 397               	.LM59:
 398 0174 8091 7400 		lds r24,116
 399 0178 87FF      		sbrs r24,7
GAS LISTING C:\Users\kees2125\AppData\Local\Temp/cccfvQxc.s 			page 8


 400 017a 00C0      		rjmp .L61
 401               	.LBE123:
 402               	.LBE122:
 403               	.LBB124:
 404               	.LBB125:
 405               	.LM60:
 406 017c 6093 7300 		sts 115,r22
 407               	.LM61:
 408 0180 84E8      		ldi r24,lo8(-124)
 409 0182 8093 7400 		sts 116,r24
 410               	.L63:
 411               	.LM62:
 412 0186 8091 7400 		lds r24,116
 413 018a 87FF      		sbrs r24,7
 414 018c 00C0      		rjmp .L63
 415 018e 00C0      		rjmp .L162
 416               	.LVL14:
 417               	.L28:
 418               	.LBE125:
 419               	.LBE124:
 420               	.LBB126:
 421               	.LBB127:
 422               	.LM63:
 423 0190 84EA      		ldi r24,lo8(-92)
 424               	.LVL15:
 425 0192 8093 7400 		sts 116,r24
 426               	.L65:
 427               	.LM64:
 428 0196 8091 7400 		lds r24,116
 429 019a 87FF      		sbrs r24,7
 430 019c 00C0      		rjmp .L65
 431               	.LBE127:
 432               	.LBE126:
 433               	.LBB128:
 434               	.LBB129:
 435               	.LM65:
 436 019e 80EE      		ldi r24,lo8(-32)
 437 01a0 8093 7300 		sts 115,r24
 438               	.LM66:
 439 01a4 84E8      		ldi r24,lo8(-124)
 440 01a6 8093 7400 		sts 116,r24
 441               	.L67:
 442               	.LM67:
 443 01aa 8091 7400 		lds r24,116
 444 01ae 87FF      		sbrs r24,7
 445 01b0 00C0      		rjmp .L67
 446               	.LBE129:
 447               	.LBE128:
 448               	.LBB130:
 449               	.LBB131:
 450               	.LM68:
 451 01b2 88E0      		ldi r24,lo8(8)
 452 01b4 8093 7300 		sts 115,r24
 453               	.LM69:
 454 01b8 84E8      		ldi r24,lo8(-124)
 455 01ba 8093 7400 		sts 116,r24
 456               	.L69:
GAS LISTING C:\Users\kees2125\AppData\Local\Temp/cccfvQxc.s 			page 9


 457               	.LM70:
 458 01be 8091 7400 		lds r24,116
 459 01c2 87FF      		sbrs r24,7
 460 01c4 00C0      		rjmp .L69
 461               	.LBE131:
 462               	.LBE130:
 463               	.LBB132:
 464               	.LBB133:
 465               	.LM71:
 466 01c6 6093 7300 		sts 115,r22
 467               	.LM72:
 468 01ca 84E8      		ldi r24,lo8(-124)
 469 01cc 8093 7400 		sts 116,r24
 470               	.L71:
 471               	.LM73:
 472 01d0 8091 7400 		lds r24,116
 473 01d4 87FF      		sbrs r24,7
 474 01d6 00C0      		rjmp .L71
 475 01d8 00C0      		rjmp .L162
 476               	.LVL16:
 477               	.L29:
 478               	.LBE133:
 479               	.LBE132:
 480               	.LBB134:
 481               	.LBB135:
 482               	.LM74:
 483 01da 84EA      		ldi r24,lo8(-92)
 484               	.LVL17:
 485 01dc 8093 7400 		sts 116,r24
 486               	.L73:
 487               	.LM75:
 488 01e0 8091 7400 		lds r24,116
 489 01e4 87FF      		sbrs r24,7
 490 01e6 00C0      		rjmp .L73
 491               	.LBE135:
 492               	.LBE134:
 493               	.LBB136:
 494               	.LBB137:
 495               	.LM76:
 496 01e8 80EE      		ldi r24,lo8(-32)
 497 01ea 8093 7300 		sts 115,r24
 498               	.LM77:
 499 01ee 84E8      		ldi r24,lo8(-124)
 500 01f0 8093 7400 		sts 116,r24
 501               	.L75:
 502               	.LM78:
 503 01f4 8091 7400 		lds r24,116
 504 01f8 87FF      		sbrs r24,7
 505 01fa 00C0      		rjmp .L75
 506               	.LBE137:
 507               	.LBE136:
 508               	.LBB138:
 509               	.LBB139:
 510               	.LM79:
 511 01fc 8AE0      		ldi r24,lo8(10)
 512 01fe 8093 7300 		sts 115,r24
 513               	.LM80:
GAS LISTING C:\Users\kees2125\AppData\Local\Temp/cccfvQxc.s 			page 10


 514 0202 84E8      		ldi r24,lo8(-124)
 515 0204 8093 7400 		sts 116,r24
 516               	.L77:
 517               	.LM81:
 518 0208 8091 7400 		lds r24,116
 519 020c 87FF      		sbrs r24,7
 520 020e 00C0      		rjmp .L77
 521               	.LBE139:
 522               	.LBE138:
 523               	.LBB140:
 524               	.LBB141:
 525               	.LM82:
 526 0210 6093 7300 		sts 115,r22
 527               	.LM83:
 528 0214 84E8      		ldi r24,lo8(-124)
 529 0216 8093 7400 		sts 116,r24
 530               	.L79:
 531               	.LM84:
 532 021a 8091 7400 		lds r24,116
 533 021e 87FF      		sbrs r24,7
 534 0220 00C0      		rjmp .L79
 535 0222 00C0      		rjmp .L162
 536               	.LVL18:
 537               	.L30:
 538               	.LBE141:
 539               	.LBE140:
 540               	.LBB142:
 541               	.LBB143:
 542               	.LM85:
 543 0224 84EA      		ldi r24,lo8(-92)
 544               	.LVL19:
 545 0226 8093 7400 		sts 116,r24
 546               	.L81:
 547               	.LM86:
 548 022a 8091 7400 		lds r24,116
 549 022e 87FF      		sbrs r24,7
 550 0230 00C0      		rjmp .L81
 551               	.LBE143:
 552               	.LBE142:
 553               	.LBB144:
 554               	.LBB145:
 555               	.LM87:
 556 0232 80EE      		ldi r24,lo8(-32)
 557 0234 8093 7300 		sts 115,r24
 558               	.LM88:
 559 0238 84E8      		ldi r24,lo8(-124)
 560 023a 8093 7400 		sts 116,r24
 561               	.L83:
 562               	.LM89:
 563 023e 8091 7400 		lds r24,116
 564 0242 87FF      		sbrs r24,7
 565 0244 00C0      		rjmp .L83
 566               	.LBE145:
 567               	.LBE144:
 568               	.LBB146:
 569               	.LBB147:
 570               	.LM90:
GAS LISTING C:\Users\kees2125\AppData\Local\Temp/cccfvQxc.s 			page 11


 571 0246 8CE0      		ldi r24,lo8(12)
 572 0248 8093 7300 		sts 115,r24
 573               	.LM91:
 574 024c 84E8      		ldi r24,lo8(-124)
 575 024e 8093 7400 		sts 116,r24
 576               	.L85:
 577               	.LM92:
 578 0252 8091 7400 		lds r24,116
 579 0256 87FF      		sbrs r24,7
 580 0258 00C0      		rjmp .L85
 581               	.LBE147:
 582               	.LBE146:
 583               	.LBB148:
 584               	.LBB149:
 585               	.LM93:
 586 025a 6093 7300 		sts 115,r22
 587               	.LM94:
 588 025e 84E8      		ldi r24,lo8(-124)
 589 0260 8093 7400 		sts 116,r24
 590               	.L87:
 591               	.LM95:
 592 0264 8091 7400 		lds r24,116
 593 0268 87FF      		sbrs r24,7
 594 026a 00C0      		rjmp .L87
 595               	.L162:
 596               	.LBE149:
 597               	.LBE148:
 598               	.LBB150:
 599               	.LBB151:
 600               	.LM96:
 601 026c 84E9      		ldi r24,lo8(-108)
 602 026e 8093 7400 		sts 116,r24
 603 0272 0895      		ret
 604               	.LVL20:
 605               	.L31:
 606               	.LBE151:
 607               	.LBE150:
 608               	.LBB152:
 609               	.LBB153:
 610               	.LM97:
 611 0274 84EA      		ldi r24,lo8(-92)
 612               	.LVL21:
 613 0276 8093 7400 		sts 116,r24
 614               	.L89:
 615               	.LM98:
 616 027a 8091 7400 		lds r24,116
 617 027e 87FF      		sbrs r24,7
 618 0280 00C0      		rjmp .L89
 619               	.LBE153:
 620               	.LBE152:
 621               	.LBB154:
 622               	.LBB155:
 623               	.LM99:
 624 0282 80EE      		ldi r24,lo8(-32)
 625 0284 8093 7300 		sts 115,r24
 626               	.LM100:
 627 0288 84E8      		ldi r24,lo8(-124)
GAS LISTING C:\Users\kees2125\AppData\Local\Temp/cccfvQxc.s 			page 12


 628 028a 8093 7400 		sts 116,r24
 629               	.L91:
 630               	.LM101:
 631 028e 8091 7400 		lds r24,116
 632 0292 87FF      		sbrs r24,7
 633 0294 00C0      		rjmp .L91
 634               	.LBE155:
 635               	.LBE154:
 636               	.LBB156:
 637               	.LBB157:
 638               	.LM102:
 639 0296 8EE0      		ldi r24,lo8(14)
 640 0298 8093 7300 		sts 115,r24
 641               	.LM103:
 642 029c 84E8      		ldi r24,lo8(-124)
 643 029e 8093 7400 		sts 116,r24
 644               	.L93:
 645               	.LM104:
 646 02a2 8091 7400 		lds r24,116
 647 02a6 87FF      		sbrs r24,7
 648 02a8 00C0      		rjmp .L93
 649               	.LBE157:
 650               	.LBE156:
 651               	.LBB158:
 652               	.LBB159:
 653               	.LM105:
 654 02aa 6093 7300 		sts 115,r22
 655               	.LM106:
 656 02ae 84E8      		ldi r24,lo8(-124)
 657 02b0 8093 7400 		sts 116,r24
 658               	.L95:
 659               	.LM107:
 660 02b4 8091 7400 		lds r24,116
 661 02b8 87FF      		sbrs r24,7
 662 02ba 00C0      		rjmp .L95
 663               	.LBE159:
 664               	.LBE158:
 665               	.LBB160:
 666               	.LBB161:
 667               	.LM108:
 668 02bc 84E9      		ldi r24,lo8(-108)
 669 02be 8093 7400 		sts 116,r24
 670               	.LVL22:
 671               	.L97:
 672 02c2 0895      		ret
 673               	.LBE161:
 674               	.LBE160:
 675               	/* epilogue: frame size=0 */
 676               	/* epilogue: noreturn */
 677               	/* epilogue end (size=0) */
 678               	/* function setLedRow size 319 (319) */
 679               	.LFE11:
 680               		.size	setLedRow, .-setLedRow
 681               	.global	arrowUp
 682               		.type	arrowUp, @function
 683               	arrowUp:
 684               	.LFB12:
GAS LISTING C:\Users\kees2125\AppData\Local\Temp/cccfvQxc.s 			page 13


 685               	.LM109:
 686               	/* prologue: frame size=0 */
 687               	/* prologue end (size=0) */
 688               	.LM110:
 689 02c4 61E0      		ldi r22,lo8(1)
 690 02c6 70E0      		ldi r23,hi8(1)
 691 02c8 88E0      		ldi r24,lo8(8)
 692 02ca 90E0      		ldi r25,hi8(8)
 693 02cc 0E94 0000 		call setLedRow
 694               	.LM111:
 695 02d0 6FE8      		ldi r22,lo8(143)
 696 02d2 70E0      		ldi r23,hi8(143)
 697 02d4 87E0      		ldi r24,lo8(7)
 698 02d6 90E0      		ldi r25,hi8(7)
 699 02d8 0E94 0000 		call setLedRow
 700               	.LM112:
 701 02dc 6FE8      		ldi r22,lo8(143)
 702 02de 70E0      		ldi r23,hi8(143)
 703 02e0 86E0      		ldi r24,lo8(6)
 704 02e2 90E0      		ldi r25,hi8(6)
 705 02e4 0E94 0000 		call setLedRow
 706               	.LM113:
 707 02e8 61E0      		ldi r22,lo8(1)
 708 02ea 70E0      		ldi r23,hi8(1)
 709 02ec 85E0      		ldi r24,lo8(5)
 710 02ee 90E0      		ldi r25,hi8(5)
 711 02f0 0E94 0000 		call setLedRow
 712               	/* epilogue: frame size=0 */
 713 02f4 0895      		ret
 714               	/* epilogue end (size=1) */
 715               	/* function arrowUp size 25 (24) */
 716               	.LFE12:
 717               		.size	arrowUp, .-arrowUp
 718               	.global	clearScreen
 719               		.type	clearScreen, @function
 720               	clearScreen:
 721               	.LFB13:
 722               	.LM114:
 723               	/* prologue: frame size=0 */
 724               	/* prologue end (size=0) */
 725               	.LM115:
 726 02f6 60E0      		ldi r22,lo8(0)
 727 02f8 70E0      		ldi r23,hi8(0)
 728 02fa 81E0      		ldi r24,lo8(1)
 729 02fc 90E0      		ldi r25,hi8(1)
 730 02fe 0E94 0000 		call setLedRow
 731               	.LM116:
 732 0302 60E0      		ldi r22,lo8(0)
 733 0304 70E0      		ldi r23,hi8(0)
 734 0306 82E0      		ldi r24,lo8(2)
 735 0308 90E0      		ldi r25,hi8(2)
 736 030a 0E94 0000 		call setLedRow
 737               	.LM117:
 738 030e 60E0      		ldi r22,lo8(0)
 739 0310 70E0      		ldi r23,hi8(0)
 740 0312 83E0      		ldi r24,lo8(3)
 741 0314 90E0      		ldi r25,hi8(3)
GAS LISTING C:\Users\kees2125\AppData\Local\Temp/cccfvQxc.s 			page 14


 742 0316 0E94 0000 		call setLedRow
 743               	.LM118:
 744 031a 60E0      		ldi r22,lo8(0)
 745 031c 70E0      		ldi r23,hi8(0)
 746 031e 84E0      		ldi r24,lo8(4)
 747 0320 90E0      		ldi r25,hi8(4)
 748 0322 0E94 0000 		call setLedRow
 749               	.LM119:
 750 0326 60E0      		ldi r22,lo8(0)
 751 0328 70E0      		ldi r23,hi8(0)
 752 032a 85E0      		ldi r24,lo8(5)
 753 032c 90E0      		ldi r25,hi8(5)
 754 032e 0E94 0000 		call setLedRow
 755               	.LM120:
 756 0332 60E0      		ldi r22,lo8(0)
 757 0334 70E0      		ldi r23,hi8(0)
 758 0336 86E0      		ldi r24,lo8(6)
 759 0338 90E0      		ldi r25,hi8(6)
 760 033a 0E94 0000 		call setLedRow
 761               	.LM121:
 762 033e 60E0      		ldi r22,lo8(0)
 763 0340 70E0      		ldi r23,hi8(0)
 764 0342 87E0      		ldi r24,lo8(7)
 765 0344 90E0      		ldi r25,hi8(7)
 766 0346 0E94 0000 		call setLedRow
 767               	.LM122:
 768 034a 60E0      		ldi r22,lo8(0)
 769 034c 70E0      		ldi r23,hi8(0)
 770 034e 88E0      		ldi r24,lo8(8)
 771 0350 90E0      		ldi r25,hi8(8)
 772 0352 0E94 0000 		call setLedRow
 773               	/* epilogue: frame size=0 */
 774 0356 0895      		ret
 775               	/* epilogue end (size=1) */
 776               	/* function clearScreen size 49 (48) */
 777               	.LFE13:
 778               		.size	clearScreen, .-clearScreen
 779               	.global	arrowDown
 780               		.type	arrowDown, @function
 781               	arrowDown:
 782               	.LFB14:
 783               	.LM123:
 784               	/* prologue: frame size=0 */
 785               	/* prologue end (size=0) */
 786               	.LM124:
 787 0358 60E2      		ldi r22,lo8(32)
 788 035a 70E0      		ldi r23,hi8(32)
 789 035c 88E0      		ldi r24,lo8(8)
 790 035e 90E0      		ldi r25,hi8(8)
 791 0360 0E94 0000 		call setLedRow
 792               	.LM125:
 793 0364 6CE7      		ldi r22,lo8(124)
 794 0366 70E0      		ldi r23,hi8(124)
 795 0368 87E0      		ldi r24,lo8(7)
 796 036a 90E0      		ldi r25,hi8(7)
 797 036c 0E94 0000 		call setLedRow
 798               	.LM126:
GAS LISTING C:\Users\kees2125\AppData\Local\Temp/cccfvQxc.s 			page 15


 799 0370 6CE7      		ldi r22,lo8(124)
 800 0372 70E0      		ldi r23,hi8(124)
 801 0374 86E0      		ldi r24,lo8(6)
 802 0376 90E0      		ldi r25,hi8(6)
 803 0378 0E94 0000 		call setLedRow
 804               	.LM127:
 805 037c 60E2      		ldi r22,lo8(32)
 806 037e 70E0      		ldi r23,hi8(32)
 807 0380 85E0      		ldi r24,lo8(5)
 808 0382 90E0      		ldi r25,hi8(5)
 809 0384 0E94 0000 		call setLedRow
 810               	/* epilogue: frame size=0 */
 811 0388 0895      		ret
 812               	/* epilogue end (size=1) */
 813               	/* function arrowDown size 25 (24) */
 814               	.LFE14:
 815               		.size	arrowDown, .-arrowDown
 816               	.global	displayNummer
 817               		.type	displayNummer, @function
 818               	displayNummer:
 819               	.LFB15:
 820               	.LM128:
 821               	/* prologue: frame size=0 */
 822               	/* prologue end (size=0) */
 823               	.LVL23:
 824               	.LM129:
 825 038a FC01      		movw r30,r24
 826 038c 0A97      		sbiw r24,10
 827 038e 00F0      		brlo .+2
 828 0390 00C0      		rjmp .L182
 829               	.LM130:
 830 0392 E050      		subi r30,lo8(-(gs(.L181)))
 831 0394 F040      		sbci r31,hi8(-(gs(.L181)))
 832 0396 0C94 0000 		jmp __tablejump2__
 833               		.data
 834               		.section .progmem.gcc_sw_table, "a", @progbits
 835               		.p2align 1
 836               	.L181:
 837               		.data
 838               		.section .progmem.gcc_sw_table, "a", @progbits
 839               		.p2align 1
 840 0010 0000      		.word gs(.L171)
 841 0012 0000      		.word gs(.L172)
 842 0014 0000      		.word gs(.L173)
 843 0016 0000      		.word gs(.L174)
 844 0018 0000      		.word gs(.L175)
 845 001a 0000      		.word gs(.L176)
 846 001c 0000      		.word gs(.L177)
 847 001e 0000      		.word gs(.L178)
 848 0020 0000      		.word gs(.L179)
 849 0022 0000      		.word gs(.L180)
 850               		.text
 851               	.L171:
 852               	.LM131:
 853 039a 68E3      		ldi r22,lo8(56)
 854 039c 70E0      		ldi r23,hi8(56)
 855 039e 84E0      		ldi r24,lo8(4)
GAS LISTING C:\Users\kees2125\AppData\Local\Temp/cccfvQxc.s 			page 16


 856 03a0 90E0      		ldi r25,hi8(4)
 857               	.LVL24:
 858 03a2 0E94 0000 		call setLedRow
 859               	.LM132:
 860 03a6 64E4      		ldi r22,lo8(68)
 861 03a8 70E0      		ldi r23,hi8(68)
 862 03aa 83E0      		ldi r24,lo8(3)
 863 03ac 90E0      		ldi r25,hi8(3)
 864 03ae 0E94 0000 		call setLedRow
 865               	.LM133:
 866 03b2 64E4      		ldi r22,lo8(68)
 867 03b4 70E0      		ldi r23,hi8(68)
 868 03b6 82E0      		ldi r24,lo8(2)
 869 03b8 90E0      		ldi r25,hi8(2)
 870 03ba 0E94 0000 		call setLedRow
 871               	.LM134:
 872 03be 68E3      		ldi r22,lo8(56)
 873 03c0 70E0      		ldi r23,hi8(56)
 874 03c2 00C0      		rjmp .L183
 875               	.LVL25:
 876               	.L172:
 877               	.LM135:
 878 03c4 60E0      		ldi r22,lo8(0)
 879 03c6 70E0      		ldi r23,hi8(0)
 880 03c8 84E0      		ldi r24,lo8(4)
 881 03ca 90E0      		ldi r25,hi8(4)
 882               	.LVL26:
 883 03cc 0E94 0000 		call setLedRow
 884               	.LM136:
 885 03d0 64E0      		ldi r22,lo8(4)
 886 03d2 70E0      		ldi r23,hi8(4)
 887 03d4 83E0      		ldi r24,lo8(3)
 888 03d6 90E0      		ldi r25,hi8(3)
 889 03d8 0E94 0000 		call setLedRow
 890               	.LM137:
 891 03dc 6CE7      		ldi r22,lo8(124)
 892 03de 70E0      		ldi r23,hi8(124)
 893 03e0 82E0      		ldi r24,lo8(2)
 894 03e2 90E0      		ldi r25,hi8(2)
 895 03e4 0E94 0000 		call setLedRow
 896               	.LM138:
 897 03e8 60E0      		ldi r22,lo8(0)
 898 03ea 70E0      		ldi r23,hi8(0)
 899 03ec 00C0      		rjmp .L183
 900               	.LVL27:
 901               	.L173:
 902               	.LM139:
 903 03ee 68E4      		ldi r22,lo8(72)
 904 03f0 70E0      		ldi r23,hi8(72)
 905 03f2 84E0      		ldi r24,lo8(4)
 906 03f4 90E0      		ldi r25,hi8(4)
 907               	.LVL28:
 908 03f6 0E94 0000 		call setLedRow
 909               	.LM140:
 910 03fa 64E6      		ldi r22,lo8(100)
 911 03fc 70E0      		ldi r23,hi8(100)
 912 03fe 83E0      		ldi r24,lo8(3)
GAS LISTING C:\Users\kees2125\AppData\Local\Temp/cccfvQxc.s 			page 17


 913 0400 90E0      		ldi r25,hi8(3)
 914 0402 0E94 0000 		call setLedRow
 915               	.LM141:
 916 0406 64E5      		ldi r22,lo8(84)
 917 0408 70E0      		ldi r23,hi8(84)
 918 040a 82E0      		ldi r24,lo8(2)
 919 040c 90E0      		ldi r25,hi8(2)
 920 040e 0E94 0000 		call setLedRow
 921               	.LM142:
 922 0412 68E4      		ldi r22,lo8(72)
 923 0414 70E0      		ldi r23,hi8(72)
 924 0416 00C0      		rjmp .L183
 925               	.LVL29:
 926               	.L174:
 927               	.LM143:
 928 0418 68E2      		ldi r22,lo8(40)
 929 041a 70E0      		ldi r23,hi8(40)
 930 041c 84E0      		ldi r24,lo8(4)
 931 041e 90E0      		ldi r25,hi8(4)
 932               	.LVL30:
 933 0420 0E94 0000 		call setLedRow
 934               	.LM144:
 935 0424 64E4      		ldi r22,lo8(68)
 936 0426 70E0      		ldi r23,hi8(68)
 937 0428 83E0      		ldi r24,lo8(3)
 938 042a 90E0      		ldi r25,hi8(3)
 939 042c 0E94 0000 		call setLedRow
 940               	.LM145:
 941 0430 64E5      		ldi r22,lo8(84)
 942 0432 70E0      		ldi r23,hi8(84)
 943 0434 82E0      		ldi r24,lo8(2)
 944 0436 90E0      		ldi r25,hi8(2)
 945 0438 0E94 0000 		call setLedRow
 946               	.LM146:
 947 043c 68E2      		ldi r22,lo8(40)
 948 043e 70E0      		ldi r23,hi8(40)
 949 0440 00C0      		rjmp .L183
 950               	.LVL31:
 951               	.L175:
 952               	.LM147:
 953 0442 6CE1      		ldi r22,lo8(28)
 954 0444 70E0      		ldi r23,hi8(28)
 955 0446 84E0      		ldi r24,lo8(4)
 956 0448 90E0      		ldi r25,hi8(4)
 957               	.LVL32:
 958 044a 0E94 0000 		call setLedRow
 959               	.LM148:
 960 044e 60E1      		ldi r22,lo8(16)
 961 0450 70E0      		ldi r23,hi8(16)
 962 0452 83E0      		ldi r24,lo8(3)
 963 0454 90E0      		ldi r25,hi8(3)
 964 0456 0E94 0000 		call setLedRow
 965               	.LM149:
 966 045a 60E1      		ldi r22,lo8(16)
 967 045c 70E0      		ldi r23,hi8(16)
 968 045e 00C0      		rjmp .L184
 969               	.LVL33:
GAS LISTING C:\Users\kees2125\AppData\Local\Temp/cccfvQxc.s 			page 18


 970               	.L176:
 971               	.LM150:
 972 0460 6CE5      		ldi r22,lo8(92)
 973 0462 70E0      		ldi r23,hi8(92)
 974 0464 00C0      		rjmp .L185
 975               	.L177:
 976               	.LM151:
 977 0466 6CE7      		ldi r22,lo8(124)
 978 0468 70E0      		ldi r23,hi8(124)
 979               	.L185:
 980 046a 84E0      		ldi r24,lo8(4)
 981 046c 90E0      		ldi r25,hi8(4)
 982               	.LVL34:
 983 046e 0E94 0000 		call setLedRow
 984               	.LM152:
 985 0472 64E5      		ldi r22,lo8(84)
 986 0474 70E0      		ldi r23,hi8(84)
 987 0476 83E0      		ldi r24,lo8(3)
 988 0478 90E0      		ldi r25,hi8(3)
 989 047a 0E94 0000 		call setLedRow
 990               	.LM153:
 991 047e 64E5      		ldi r22,lo8(84)
 992 0480 70E0      		ldi r23,hi8(84)
 993 0482 82E0      		ldi r24,lo8(2)
 994 0484 90E0      		ldi r25,hi8(2)
 995 0486 0E94 0000 		call setLedRow
 996               	.LM154:
 997 048a 64E7      		ldi r22,lo8(116)
 998 048c 70E0      		ldi r23,hi8(116)
 999 048e 00C0      		rjmp .L183
 1000               	.LVL35:
 1001               	.L178:
 1002               	.LM155:
 1003 0490 64E0      		ldi r22,lo8(4)
 1004 0492 70E0      		ldi r23,hi8(4)
 1005 0494 84E0      		ldi r24,lo8(4)
 1006 0496 90E0      		ldi r25,hi8(4)
 1007               	.LVL36:
 1008 0498 0E94 0000 		call setLedRow
 1009               	.LM156:
 1010 049c 64E6      		ldi r22,lo8(100)
 1011 049e 70E0      		ldi r23,hi8(100)
 1012 04a0 83E0      		ldi r24,lo8(3)
 1013 04a2 90E0      		ldi r25,hi8(3)
 1014 04a4 0E94 0000 		call setLedRow
 1015               	.LM157:
 1016 04a8 64E1      		ldi r22,lo8(20)
 1017 04aa 70E0      		ldi r23,hi8(20)
 1018 04ac 82E0      		ldi r24,lo8(2)
 1019 04ae 90E0      		ldi r25,hi8(2)
 1020 04b0 0E94 0000 		call setLedRow
 1021               	.LM158:
 1022 04b4 6CE0      		ldi r22,lo8(12)
 1023 04b6 70E0      		ldi r23,hi8(12)
 1024 04b8 00C0      		rjmp .L183
 1025               	.LVL37:
 1026               	.L179:
GAS LISTING C:\Users\kees2125\AppData\Local\Temp/cccfvQxc.s 			page 19


 1027               	.LM159:
 1028 04ba 6CE7      		ldi r22,lo8(124)
 1029 04bc 70E0      		ldi r23,hi8(124)
 1030 04be 84E0      		ldi r24,lo8(4)
 1031 04c0 90E0      		ldi r25,hi8(4)
 1032               	.LVL38:
 1033 04c2 0E94 0000 		call setLedRow
 1034               	.LM160:
 1035 04c6 64E5      		ldi r22,lo8(84)
 1036 04c8 70E0      		ldi r23,hi8(84)
 1037 04ca 83E0      		ldi r24,lo8(3)
 1038 04cc 90E0      		ldi r25,hi8(3)
 1039 04ce 0E94 0000 		call setLedRow
 1040               	.LM161:
 1041 04d2 64E5      		ldi r22,lo8(84)
 1042 04d4 70E0      		ldi r23,hi8(84)
 1043               	.L184:
 1044 04d6 82E0      		ldi r24,lo8(2)
 1045 04d8 90E0      		ldi r25,hi8(2)
 1046 04da 0E94 0000 		call setLedRow
 1047               	.LM162:
 1048 04de 6CE7      		ldi r22,lo8(124)
 1049 04e0 70E0      		ldi r23,hi8(124)
 1050               	.L183:
 1051 04e2 81E0      		ldi r24,lo8(1)
 1052 04e4 90E0      		ldi r25,hi8(1)
 1053 04e6 0E94 0000 		call setLedRow
 1054 04ea 0895      		ret
 1055               	.LVL39:
 1056               	.L180:
 1057               	.LM163:
 1058 04ec 6CE5      		ldi r22,lo8(92)
 1059 04ee 70E0      		ldi r23,hi8(92)
 1060 04f0 84E0      		ldi r24,lo8(4)
 1061 04f2 90E0      		ldi r25,hi8(4)
 1062               	.LVL40:
 1063 04f4 0E94 0000 		call setLedRow
 1064               	.LM164:
 1065 04f8 64E5      		ldi r22,lo8(84)
 1066 04fa 70E0      		ldi r23,hi8(84)
 1067 04fc 83E0      		ldi r24,lo8(3)
 1068 04fe 90E0      		ldi r25,hi8(3)
 1069 0500 0E94 0000 		call setLedRow
 1070               	.LM165:
 1071 0504 64E5      		ldi r22,lo8(84)
 1072 0506 70E0      		ldi r23,hi8(84)
 1073 0508 82E0      		ldi r24,lo8(2)
 1074 050a 90E0      		ldi r25,hi8(2)
 1075 050c 0E94 0000 		call setLedRow
 1076               	.LM166:
 1077 0510 6CE7      		ldi r22,lo8(124)
 1078 0512 70E0      		ldi r23,hi8(124)
 1079 0514 81E0      		ldi r24,lo8(1)
 1080 0516 90E0      		ldi r25,hi8(1)
 1081 0518 0E94 0000 		call setLedRow
 1082               	.LVL41:
 1083               	.L182:
GAS LISTING C:\Users\kees2125\AppData\Local\Temp/cccfvQxc.s 			page 20


 1084 051c 0895      		ret
 1085               	/* epilogue: frame size=0 */
 1086               	/* epilogue: noreturn */
 1087               	/* epilogue end (size=0) */
 1088               	/* function displayNummer size 213 (213) */
 1089               	.LFE15:
 1090               		.size	displayNummer, .-displayNummer
 1091               	.global	toFloor
 1092               		.type	toFloor, @function
 1093               	toFloor:
 1094               	.LFB16:
 1095               	.LM167:
 1096               	/* prologue: frame size=0 */
 1097 051e 0F93      		push r16
 1098 0520 1F93      		push r17
 1099 0522 CF93      		push r28
 1100 0524 DF93      		push r29
 1101               	/* prologue end (size=4) */
 1102               	.LVL42:
 1103 0526 EC01      		movw r28,r24
 1104 0528 8B01      		movw r16,r22
 1105               	.LM168:
 1106 052a 8617      		cp r24,r22
 1107 052c 9707      		cpc r25,r23
 1108 052e 04F4      		brge .L187
 1109               	.LM169:
 1110 0530 0E94 0000 		call arrowUp
 1111               	.LVL43:
 1112 0534 00C0      		rjmp .L189
 1113               	.L190:
 1114               	.LM170:
 1115 0536 0C17      		cp r16,r28
 1116 0538 1D07      		cpc r17,r29
 1117 053a 01F4      		brne .L191
 1118               	.LM171:
 1119 053c 0E94 0000 		call clearScreen
 1120               	.L191:
 1121               	.LM172:
 1122 0540 CE01      		movw r24,r28
 1123 0542 0E94 0000 		call displayNummer
 1124               	.LM173:
 1125 0546 88EE      		ldi r24,lo8(1000)
 1126 0548 93E0      		ldi r25,hi8(1000)
 1127 054a 0E94 0000 		call wait
 1128               	.LM174:
 1129 054e 2196      		adiw r28,1
 1130               	.L189:
 1131 0550 0C17      		cp r16,r28
 1132 0552 1D07      		cpc r17,r29
 1133 0554 04F4      		brge .L190
 1134 0556 00C0      		rjmp .L198
 1135               	.LVL44:
 1136               	.L187:
 1137               	.LM175:
 1138 0558 0E94 0000 		call arrowDown
 1139               	.LVL45:
 1140 055c 00C0      		rjmp .L194
GAS LISTING C:\Users\kees2125\AppData\Local\Temp/cccfvQxc.s 			page 21


 1141               	.L195:
 1142               	.LM176:
 1143 055e 0C17      		cp r16,r28
 1144 0560 1D07      		cpc r17,r29
 1145 0562 01F4      		brne .L196
 1146               	.LM177:
 1147 0564 0E94 0000 		call clearScreen
 1148               	.L196:
 1149               	.LM178:
 1150 0568 CE01      		movw r24,r28
 1151 056a 0E94 0000 		call displayNummer
 1152               	.LM179:
 1153 056e 88EE      		ldi r24,lo8(1000)
 1154 0570 93E0      		ldi r25,hi8(1000)
 1155 0572 0E94 0000 		call wait
 1156               	.LM180:
 1157 0576 2197      		sbiw r28,1
 1158               	.L194:
 1159 0578 C017      		cp r28,r16
 1160 057a D107      		cpc r29,r17
 1161 057c 04F4      		brge .L195
 1162               	.L198:
 1163               	/* epilogue: frame size=0 */
 1164 057e DF91      		pop r29
 1165 0580 CF91      		pop r28
 1166 0582 1F91      		pop r17
 1167 0584 0F91      		pop r16
 1168 0586 0895      		ret
 1169               	/* epilogue end (size=5) */
 1170               	/* function toFloor size 53 (44) */
 1171               	.LFE16:
 1172               		.size	toFloor, .-toFloor
 1173               	.global	main
 1174               		.type	main, @function
 1175               	main:
 1176               	.LFB17:
 1177               	.LM181:
 1178               	/* prologue: frame size=0 */
 1179 0588 CF93      		push r28
 1180 058a DF93      		push r29
 1181               	/* prologue end (size=2) */
 1182               	.LBB198:
 1183               	.LBB199:
 1184               	.LM182:
 1185 058c 1092 7100 		sts 113,__zero_reg__
 1186               	.LM183:
 1187 0590 80E2      		ldi r24,lo8(32)
 1188 0592 8093 7000 		sts 112,r24
 1189               	.LBE199:
 1190               	.LBE198:
 1191               	.LBB200:
 1192               	.LBB201:
 1193               	.LM184:
 1194 0596 84EA      		ldi r24,lo8(-92)
 1195 0598 8093 7400 		sts 116,r24
 1196               	.L200:
 1197               	.LM185:
GAS LISTING C:\Users\kees2125\AppData\Local\Temp/cccfvQxc.s 			page 22


 1198 059c 8091 7400 		lds r24,116
 1199 05a0 87FF      		sbrs r24,7
 1200 05a2 00C0      		rjmp .L200
 1201               	.LBE201:
 1202               	.LBE200:
 1203               	.LBB202:
 1204               	.LBB203:
 1205               	.LM186:
 1206 05a4 80EE      		ldi r24,lo8(-32)
 1207 05a6 8093 7300 		sts 115,r24
 1208               	.LM187:
 1209 05aa 84E8      		ldi r24,lo8(-124)
 1210 05ac 8093 7400 		sts 116,r24
 1211               	.L202:
 1212               	.LM188:
 1213 05b0 8091 7400 		lds r24,116
 1214 05b4 87FF      		sbrs r24,7
 1215 05b6 00C0      		rjmp .L202
 1216               	.LBE203:
 1217               	.LBE202:
 1218               	.LBB204:
 1219               	.LBB205:
 1220               	.LM189:
 1221 05b8 81E2      		ldi r24,lo8(33)
 1222 05ba 8093 7300 		sts 115,r24
 1223               	.LM190:
 1224 05be 84E8      		ldi r24,lo8(-124)
 1225 05c0 8093 7400 		sts 116,r24
 1226               	.L204:
 1227               	.LM191:
 1228 05c4 8091 7400 		lds r24,116
 1229 05c8 87FF      		sbrs r24,7
 1230 05ca 00C0      		rjmp .L204
 1231               	.LBE205:
 1232               	.LBE204:
 1233               	.LBB206:
 1234               	.LBB207:
 1235               	.LM192:
 1236 05cc 84E9      		ldi r24,lo8(-108)
 1237 05ce 8093 7400 		sts 116,r24
 1238               	.LBE207:
 1239               	.LBE206:
 1240               	.LBB208:
 1241               	.LBB209:
 1242               	.LM193:
 1243 05d2 84EA      		ldi r24,lo8(-92)
 1244 05d4 8093 7400 		sts 116,r24
 1245               	.L206:
 1246               	.LM194:
 1247 05d8 8091 7400 		lds r24,116
 1248 05dc 87FF      		sbrs r24,7
 1249 05de 00C0      		rjmp .L206
 1250               	.LBE209:
 1251               	.LBE208:
 1252               	.LBB210:
 1253               	.LBB211:
 1254               	.LM195:
GAS LISTING C:\Users\kees2125\AppData\Local\Temp/cccfvQxc.s 			page 23


 1255 05e0 80EE      		ldi r24,lo8(-32)
 1256 05e2 8093 7300 		sts 115,r24
 1257               	.LM196:
 1258 05e6 84E8      		ldi r24,lo8(-124)
 1259 05e8 8093 7400 		sts 116,r24
 1260               	.L208:
 1261               	.LM197:
 1262 05ec 8091 7400 		lds r24,116
 1263 05f0 87FF      		sbrs r24,7
 1264 05f2 00C0      		rjmp .L208
 1265               	.LBE211:
 1266               	.LBE210:
 1267               	.LBB212:
 1268               	.LBB213:
 1269               	.LM198:
 1270 05f4 80EA      		ldi r24,lo8(-96)
 1271 05f6 8093 7300 		sts 115,r24
 1272               	.LM199:
 1273 05fa 84E8      		ldi r24,lo8(-124)
 1274 05fc 8093 7400 		sts 116,r24
 1275               	.L210:
 1276               	.LM200:
 1277 0600 8091 7400 		lds r24,116
 1278 0604 87FF      		sbrs r24,7
 1279 0606 00C0      		rjmp .L210
 1280               	.LBE213:
 1281               	.LBE212:
 1282               	.LBB214:
 1283               	.LBB215:
 1284               	.LM201:
 1285 0608 84E9      		ldi r24,lo8(-108)
 1286 060a 8093 7400 		sts 116,r24
 1287               	.LBE215:
 1288               	.LBE214:
 1289               	.LBB216:
 1290               	.LBB217:
 1291               	.LM202:
 1292 060e 84EA      		ldi r24,lo8(-92)
 1293 0610 8093 7400 		sts 116,r24
 1294               	.L212:
 1295               	.LM203:
 1296 0614 8091 7400 		lds r24,116
 1297 0618 87FF      		sbrs r24,7
 1298 061a 00C0      		rjmp .L212
 1299               	.LBE217:
 1300               	.LBE216:
 1301               	.LBB218:
 1302               	.LBB219:
 1303               	.LM204:
 1304 061c 80EE      		ldi r24,lo8(-32)
 1305 061e 8093 7300 		sts 115,r24
 1306               	.LM205:
 1307 0622 84E8      		ldi r24,lo8(-124)
 1308 0624 8093 7400 		sts 116,r24
 1309               	.L214:
 1310               	.LM206:
 1311 0628 8091 7400 		lds r24,116
GAS LISTING C:\Users\kees2125\AppData\Local\Temp/cccfvQxc.s 			page 24


 1312 062c 87FF      		sbrs r24,7
 1313 062e 00C0      		rjmp .L214
 1314               	.LBE219:
 1315               	.LBE218:
 1316               	.LBB220:
 1317               	.LBB221:
 1318               	.LM207:
 1319 0630 83EE      		ldi r24,lo8(-29)
 1320 0632 8093 7300 		sts 115,r24
 1321               	.LM208:
 1322 0636 84E8      		ldi r24,lo8(-124)
 1323 0638 8093 7400 		sts 116,r24
 1324               	.L216:
 1325               	.LM209:
 1326 063c 8091 7400 		lds r24,116
 1327 0640 87FF      		sbrs r24,7
 1328 0642 00C0      		rjmp .L216
 1329               	.LBE221:
 1330               	.LBE220:
 1331               	.LBB222:
 1332               	.LBB223:
 1333               	.LM210:
 1334 0644 84E9      		ldi r24,lo8(-108)
 1335 0646 8093 7400 		sts 116,r24
 1336               	.LBE223:
 1337               	.LBE222:
 1338               	.LBB224:
 1339               	.LBB225:
 1340               	.LM211:
 1341 064a 84EA      		ldi r24,lo8(-92)
 1342 064c 8093 7400 		sts 116,r24
 1343               	.L218:
 1344               	.LM212:
 1345 0650 8091 7400 		lds r24,116
 1346 0654 87FF      		sbrs r24,7
 1347 0656 00C0      		rjmp .L218
 1348               	.LBE225:
 1349               	.LBE224:
 1350               	.LBB226:
 1351               	.LBB227:
 1352               	.LM213:
 1353 0658 80EE      		ldi r24,lo8(-32)
 1354 065a 8093 7300 		sts 115,r24
 1355               	.LM214:
 1356 065e 84E8      		ldi r24,lo8(-124)
 1357 0660 8093 7400 		sts 116,r24
 1358               	.L220:
 1359               	.LM215:
 1360 0664 8091 7400 		lds r24,116
 1361 0668 87FF      		sbrs r24,7
 1362 066a 00C0      		rjmp .L220
 1363               	.LBE227:
 1364               	.LBE226:
 1365               	.LBB228:
 1366               	.LBB229:
 1367               	.LM216:
 1368 066c 81E8      		ldi r24,lo8(-127)
GAS LISTING C:\Users\kees2125\AppData\Local\Temp/cccfvQxc.s 			page 25


 1369 066e 8093 7300 		sts 115,r24
 1370               	.LM217:
 1371 0672 84E8      		ldi r24,lo8(-124)
 1372 0674 8093 7400 		sts 116,r24
 1373               	.L222:
 1374               	.LM218:
 1375 0678 8091 7400 		lds r24,116
 1376 067c 87FF      		sbrs r24,7
 1377 067e 00C0      		rjmp .L222
 1378               	.LBE229:
 1379               	.LBE228:
 1380               	.LBB230:
 1381               	.LBB231:
 1382               	.LM219:
 1383 0680 84E9      		ldi r24,lo8(-108)
 1384 0682 8093 7400 		sts 116,r24
 1385               	.LBE231:
 1386               	.LBE230:
 1387               	.LM220:
 1388 0686 6FEF      		ldi r22,lo8(255)
 1389 0688 70E0      		ldi r23,hi8(255)
 1390 068a 81E0      		ldi r24,lo8(1)
 1391 068c 90E0      		ldi r25,hi8(1)
 1392 068e 0E94 0000 		call setLedRow
 1393               	.LM221:
 1394 0692 6FEF      		ldi r22,lo8(255)
 1395 0694 70E0      		ldi r23,hi8(255)
 1396 0696 82E0      		ldi r24,lo8(2)
 1397 0698 90E0      		ldi r25,hi8(2)
 1398 069a 0E94 0000 		call setLedRow
 1399               	.LM222:
 1400 069e 6FEF      		ldi r22,lo8(255)
 1401 06a0 70E0      		ldi r23,hi8(255)
 1402 06a2 83E0      		ldi r24,lo8(3)
 1403 06a4 90E0      		ldi r25,hi8(3)
 1404 06a6 0E94 0000 		call setLedRow
 1405               	.LM223:
 1406 06aa 6FEF      		ldi r22,lo8(255)
 1407 06ac 70E0      		ldi r23,hi8(255)
 1408 06ae 84E0      		ldi r24,lo8(4)
 1409 06b0 90E0      		ldi r25,hi8(4)
 1410 06b2 0E94 0000 		call setLedRow
 1411               	.LM224:
 1412 06b6 6FEF      		ldi r22,lo8(255)
 1413 06b8 70E0      		ldi r23,hi8(255)
 1414 06ba 85E0      		ldi r24,lo8(5)
 1415 06bc 90E0      		ldi r25,hi8(5)
 1416 06be 0E94 0000 		call setLedRow
 1417               	.LM225:
 1418 06c2 6FEF      		ldi r22,lo8(255)
 1419 06c4 70E0      		ldi r23,hi8(255)
 1420 06c6 86E0      		ldi r24,lo8(6)
 1421 06c8 90E0      		ldi r25,hi8(6)
 1422 06ca 0E94 0000 		call setLedRow
 1423               	.LM226:
 1424 06ce 6FEF      		ldi r22,lo8(255)
 1425 06d0 70E0      		ldi r23,hi8(255)
GAS LISTING C:\Users\kees2125\AppData\Local\Temp/cccfvQxc.s 			page 26


 1426 06d2 87E0      		ldi r24,lo8(7)
 1427 06d4 90E0      		ldi r25,hi8(7)
 1428 06d6 0E94 0000 		call setLedRow
 1429               	.LM227:
 1430 06da 6FEF      		ldi r22,lo8(255)
 1431 06dc 70E0      		ldi r23,hi8(255)
 1432 06de 88E0      		ldi r24,lo8(8)
 1433 06e0 90E0      		ldi r25,hi8(8)
 1434 06e2 0E94 0000 		call setLedRow
 1435               	.LM228:
 1436 06e6 84EF      		ldi r24,lo8(500)
 1437 06e8 91E0      		ldi r25,hi8(500)
 1438 06ea 0E94 0000 		call wait
 1439               	.LM229:
 1440 06ee 0E94 0000 		call clearScreen
 1441               	.LM230:
 1442 06f2 84EF      		ldi r24,lo8(500)
 1443 06f4 91E0      		ldi r25,hi8(500)
 1444 06f6 0E94 0000 		call wait
 1445               	.LM231:
 1446 06fa 0E94 0000 		call arrowUp
 1447               	.LBB232:
 1448               	.LM232:
 1449 06fe 80E0      		ldi r24,lo8(0)
 1450 0700 90E0      		ldi r25,hi8(0)
 1451 0702 0E94 0000 		call displayNummer
 1452               	.LM233:
 1453 0706 88EE      		ldi r24,lo8(1000)
 1454 0708 93E0      		ldi r25,hi8(1000)
 1455 070a 0E94 0000 		call wait
 1456               	.LM234:
 1457 070e C1E0      		ldi r28,lo8(1)
 1458 0710 D0E0      		ldi r29,hi8(1)
 1459               	.LVL46:
 1460               	.L224:
 1461               	.LM235:
 1462 0712 C930      		cpi r28,9
 1463 0714 D105      		cpc r29,__zero_reg__
 1464 0716 01F4      		brne .L225
 1465               	.LM236:
 1466 0718 0E94 0000 		call clearScreen
 1467               	.LM237:
 1468 071c 89E0      		ldi r24,lo8(9)
 1469 071e 90E0      		ldi r25,hi8(9)
 1470 0720 0E94 0000 		call displayNummer
 1471               	.LM238:
 1472 0724 88EE      		ldi r24,lo8(1000)
 1473 0726 93E0      		ldi r25,hi8(1000)
 1474 0728 0E94 0000 		call wait
 1475 072c 00C0      		rjmp .L227
 1476               	.L225:
 1477               	.LM239:
 1478 072e CE01      		movw r24,r28
 1479 0730 0E94 0000 		call displayNummer
 1480               	.LM240:
 1481 0734 88EE      		ldi r24,lo8(1000)
 1482 0736 93E0      		ldi r25,hi8(1000)
GAS LISTING C:\Users\kees2125\AppData\Local\Temp/cccfvQxc.s 			page 27


 1483 0738 0E94 0000 		call wait
 1484               	.LM241:
 1485 073c 2196      		adiw r28,1
 1486 073e CA30      		cpi r28,10
 1487 0740 D105      		cpc r29,__zero_reg__
 1488 0742 01F4      		brne .L224
 1489               	.L227:
 1490               	.LBE232:
 1491               	.LM242:
 1492 0744 84EF      		ldi r24,lo8(500)
 1493 0746 91E0      		ldi r25,hi8(500)
 1494 0748 0E94 0000 		call wait
 1495               	.LM243:
 1496 074c 0E94 0000 		call arrowDown
 1497               	.LBB233:
 1498               	.LM244:
 1499 0750 89E0      		ldi r24,lo8(9)
 1500 0752 90E0      		ldi r25,hi8(9)
 1501 0754 0E94 0000 		call displayNummer
 1502               	.LM245:
 1503 0758 88EE      		ldi r24,lo8(1000)
 1504 075a 93E0      		ldi r25,hi8(1000)
 1505 075c 0E94 0000 		call wait
 1506               	.LM246:
 1507 0760 C8E0      		ldi r28,lo8(8)
 1508 0762 D0E0      		ldi r29,hi8(8)
 1509               	.LVL47:
 1510               	.L228:
 1511               	.LM247:
 1512 0764 2097      		sbiw r28,0
 1513 0766 01F4      		brne .L229
 1514               	.LM248:
 1515 0768 0E94 0000 		call clearScreen
 1516               	.LM249:
 1517 076c 80E0      		ldi r24,lo8(0)
 1518 076e 90E0      		ldi r25,hi8(0)
 1519 0770 0E94 0000 		call displayNummer
 1520               	.LM250:
 1521 0774 88EE      		ldi r24,lo8(1000)
 1522 0776 93E0      		ldi r25,hi8(1000)
 1523 0778 0E94 0000 		call wait
 1524 077c 00C0      		rjmp .L231
 1525               	.L229:
 1526               	.LM251:
 1527 077e CE01      		movw r24,r28
 1528 0780 0E94 0000 		call displayNummer
 1529               	.LM252:
 1530 0784 88EE      		ldi r24,lo8(1000)
 1531 0786 93E0      		ldi r25,hi8(1000)
 1532 0788 0E94 0000 		call wait
 1533               	.LM253:
 1534 078c 2197      		sbiw r28,1
 1535 078e 8FEF      		ldi r24,hi8(-1)
 1536 0790 CF3F      		cpi r28,lo8(-1)
 1537 0792 D807      		cpc r29,r24
 1538 0794 01F4      		brne .L228
 1539               	.L231:
GAS LISTING C:\Users\kees2125\AppData\Local\Temp/cccfvQxc.s 			page 28


 1540               	.LBE233:
 1541               	.LM254:
 1542 0796 84EF      		ldi r24,lo8(500)
 1543 0798 91E0      		ldi r25,hi8(500)
 1544 079a 0E94 0000 		call wait
 1545 079e 80E0      		ldi r24,lo8(0)
 1546 07a0 90E0      		ldi r25,hi8(0)
 1547               	.LVL48:
 1548 07a2 C0E0      		ldi r28,lo8(0)
 1549 07a4 D0E0      		ldi r29,hi8(0)
 1550               	.LVL49:
 1551               	.L277:
 1552               	.LM255:
 1553 07a6 29B3      		in r18,57-0x20
 1554 07a8 2830      		cpi r18,lo8(8)
 1555 07aa 01F0      		breq .L237
 1556 07ac 2930      		cpi r18,lo8(9)
 1557 07ae 00F4      		brsh .L242
 1558 07b0 2230      		cpi r18,lo8(2)
 1559 07b2 01F0      		breq .L235
 1560 07b4 2430      		cpi r18,lo8(4)
 1561 07b6 01F0      		breq .L236
 1562 07b8 2130      		cpi r18,lo8(1)
 1563 07ba 01F4      		brne .L233
 1564 07bc 00C0      		rjmp .L234
 1565               	.L242:
 1566 07be 2032      		cpi r18,lo8(32)
 1567 07c0 01F0      		breq .L239
 1568 07c2 2132      		cpi r18,lo8(33)
 1569 07c4 00F4      		brsh .L243
 1570 07c6 2031      		cpi r18,lo8(16)
 1571 07c8 01F4      		brne .L233
 1572 07ca 00C0      		rjmp .L238
 1573               	.L243:
 1574 07cc 2034      		cpi r18,lo8(64)
 1575 07ce 01F0      		breq .L240
 1576 07d0 2038      		cpi r18,lo8(-128)
 1577 07d2 01F4      		brne .L233
 1578 07d4 C7E0      		ldi r28,lo8(7)
 1579 07d6 D0E0      		ldi r29,hi8(7)
 1580 07d8 00C0      		rjmp .L233
 1581               	.L234:
 1582 07da C0E0      		ldi r28,lo8(0)
 1583 07dc D0E0      		ldi r29,hi8(0)
 1584 07de 00C0      		rjmp .L233
 1585               	.L235:
 1586               	.LM256:
 1587 07e0 C1E0      		ldi r28,lo8(1)
 1588 07e2 D0E0      		ldi r29,hi8(1)
 1589 07e4 00C0      		rjmp .L233
 1590               	.L236:
 1591               	.LM257:
 1592 07e6 C2E0      		ldi r28,lo8(2)
 1593 07e8 D0E0      		ldi r29,hi8(2)
 1594 07ea 00C0      		rjmp .L233
 1595               	.L237:
 1596               	.LM258:
GAS LISTING C:\Users\kees2125\AppData\Local\Temp/cccfvQxc.s 			page 29


 1597 07ec C3E0      		ldi r28,lo8(3)
 1598 07ee D0E0      		ldi r29,hi8(3)
 1599 07f0 00C0      		rjmp .L233
 1600               	.L238:
 1601               	.LM259:
 1602 07f2 C4E0      		ldi r28,lo8(4)
 1603 07f4 D0E0      		ldi r29,hi8(4)
 1604 07f6 00C0      		rjmp .L233
 1605               	.L239:
 1606               	.LM260:
 1607 07f8 C5E0      		ldi r28,lo8(5)
 1608 07fa D0E0      		ldi r29,hi8(5)
 1609 07fc 00C0      		rjmp .L233
 1610               	.L240:
 1611               	.LM261:
 1612 07fe C6E0      		ldi r28,lo8(6)
 1613 0800 D0E0      		ldi r29,hi8(6)
 1614               	.L233:
 1615               	.LM262:
 1616 0802 8C17      		cp r24,r28
 1617 0804 9D07      		cpc r25,r29
 1618 0806 01F0      		breq .L277
 1619               	.LM263:
 1620 0808 BE01      		movw r22,r28
 1621 080a 0E94 0000 		call toFloor
 1622               	.LVL50:
 1623 080e CE01      		movw r24,r28
 1624               	.LVL51:
 1625 0810 00C0      		rjmp .L277
 1626               	/* epilogue: frame size=0 */
 1627               	/* epilogue: noreturn */
 1628               	/* epilogue end (size=0) */
 1629               	/* function main size 325 (323) */
 1630               	.LFE17:
 1631               		.size	main, .-main
 1632               		.section	.debug_frame,"",@progbits
 1633               	.Lframe0:
 1634 0000 0C00 0000 		.long	.LECIE0-.LSCIE0
 1635               	.LSCIE0:
 1636 0004 FFFF FFFF 		.long	0xffffffff
 1637 0008 01        		.byte	0x1
 1638 0009 00        		.string	""
 1639 000a 01        		.uleb128 0x1
 1640 000b 7F        		.sleb128 -1
 1641 000c 24        		.byte	0x24
 1642 000d 0C        		.byte	0xc
 1643 000e 20        		.uleb128 0x20
 1644 000f 00        		.uleb128 0x0
 1645               		.p2align	2
 1646               	.LECIE0:
 1647               	.LSFDE0:
 1648 0010 0C00 0000 		.long	.LEFDE0-.LASFDE0
 1649               	.LASFDE0:
 1650 0014 0000 0000 		.long	.Lframe0
 1651 0018 0000 0000 		.long	.LFB6
 1652 001c 0C00 0000 		.long	.LFE6-.LFB6
 1653               		.p2align	2
GAS LISTING C:\Users\kees2125\AppData\Local\Temp/cccfvQxc.s 			page 30


 1654               	.LEFDE0:
 1655               	.LSFDE2:
 1656 0020 0C00 0000 		.long	.LEFDE2-.LASFDE2
 1657               	.LASFDE2:
 1658 0024 0000 0000 		.long	.Lframe0
 1659 0028 0000 0000 		.long	.LFB7
 1660 002c 1000 0000 		.long	.LFE7-.LFB7
 1661               		.p2align	2
 1662               	.LEFDE2:
 1663               	.LSFDE4:
 1664 0030 0C00 0000 		.long	.LEFDE4-.LASFDE4
 1665               	.LASFDE4:
 1666 0034 0000 0000 		.long	.Lframe0
 1667 0038 0000 0000 		.long	.LFB8
 1668 003c 0800 0000 		.long	.LFE8-.LFB8
 1669               		.p2align	2
 1670               	.LEFDE4:
 1671               	.LSFDE6:
 1672 0040 0C00 0000 		.long	.LEFDE6-.LASFDE6
 1673               	.LASFDE6:
 1674 0044 0000 0000 		.long	.Lframe0
 1675 0048 0000 0000 		.long	.LFB9
 1676 004c 1400 0000 		.long	.LFE9-.LFB9
 1677               		.p2align	2
 1678               	.LEFDE6:
 1679               	.LSFDE8:
 1680 0050 0C00 0000 		.long	.LEFDE8-.LASFDE8
 1681               	.LASFDE8:
 1682 0054 0000 0000 		.long	.Lframe0
 1683 0058 0000 0000 		.long	.LFB10
 1684 005c 1E00 0000 		.long	.LFE10-.LFB10
 1685               		.p2align	2
 1686               	.LEFDE8:
 1687               	.LSFDE10:
 1688 0060 0C00 0000 		.long	.LEFDE10-.LASFDE10
 1689               	.LASFDE10:
 1690 0064 0000 0000 		.long	.Lframe0
 1691 0068 0000 0000 		.long	.LFB11
 1692 006c 6E02 0000 		.long	.LFE11-.LFB11
 1693               		.p2align	2
 1694               	.LEFDE10:
 1695               	.LSFDE12:
 1696 0070 0C00 0000 		.long	.LEFDE12-.LASFDE12
 1697               	.LASFDE12:
 1698 0074 0000 0000 		.long	.Lframe0
 1699 0078 0000 0000 		.long	.LFB12
 1700 007c 3200 0000 		.long	.LFE12-.LFB12
 1701               		.p2align	2
 1702               	.LEFDE12:
 1703               	.LSFDE14:
 1704 0080 0C00 0000 		.long	.LEFDE14-.LASFDE14
 1705               	.LASFDE14:
 1706 0084 0000 0000 		.long	.Lframe0
 1707 0088 0000 0000 		.long	.LFB13
 1708 008c 6200 0000 		.long	.LFE13-.LFB13
 1709               		.p2align	2
 1710               	.LEFDE14:
GAS LISTING C:\Users\kees2125\AppData\Local\Temp/cccfvQxc.s 			page 31


 1711               	.LSFDE16:
 1712 0090 0C00 0000 		.long	.LEFDE16-.LASFDE16
 1713               	.LASFDE16:
 1714 0094 0000 0000 		.long	.Lframe0
 1715 0098 0000 0000 		.long	.LFB14
 1716 009c 3200 0000 		.long	.LFE14-.LFB14
 1717               		.p2align	2
 1718               	.LEFDE16:
 1719               	.LSFDE18:
 1720 00a0 0C00 0000 		.long	.LEFDE18-.LASFDE18
 1721               	.LASFDE18:
 1722 00a4 0000 0000 		.long	.Lframe0
 1723 00a8 0000 0000 		.long	.LFB15
 1724 00ac 9401 0000 		.long	.LFE15-.LFB15
 1725               		.p2align	2
 1726               	.LEFDE18:
 1727               	.LSFDE20:
 1728 00b0 0C00 0000 		.long	.LEFDE20-.LASFDE20
 1729               	.LASFDE20:
 1730 00b4 0000 0000 		.long	.Lframe0
 1731 00b8 0000 0000 		.long	.LFB16
 1732 00bc 6A00 0000 		.long	.LFE16-.LFB16
 1733               		.p2align	2
 1734               	.LEFDE20:
 1735               	.LSFDE22:
 1736 00c0 0C00 0000 		.long	.LEFDE22-.LASFDE22
 1737               	.LASFDE22:
 1738 00c4 0000 0000 		.long	.Lframe0
 1739 00c8 0000 0000 		.long	.LFB17
 1740 00cc 8A02 0000 		.long	.LFE17-.LFB17
 1741               		.p2align	2
 1742               	.LEFDE22:
 1743               		.text
 1744               	.Letext0:
 1745               		.section	.debug_line
 1746 0000 FD08 0000 		.long	.LELT0-.LSLT0
 1747               	.LSLT0:
 1748 0004 0200      		.word	0x2
 1749 0006 8500 0000 		.long	.LELTP0-.LASLTP0
 1750               	.LASLTP0:
 1751 000a 01        		.byte	0x1
 1752 000b 01        		.byte	0x1
 1753 000c F6        		.byte	0xf6
 1754 000d F5        		.byte	0xf5
 1755 000e 0A        		.byte	0xa
 1756 000f 00        		.byte	0x0
 1757 0010 01        		.byte	0x1
 1758 0011 01        		.byte	0x1
 1759 0012 01        		.byte	0x1
 1760 0013 01        		.byte	0x1
 1761 0014 00        		.byte	0x0
 1762 0015 00        		.byte	0x0
 1763 0016 00        		.byte	0x0
 1764 0017 01        		.byte	0x1
 1765 0018 633A 2F77 		.ascii	"c:/winavr-20070525/bin/../avr/include"
 1765      696E 6176 
 1765      722D 3230 
GAS LISTING C:\Users\kees2125\AppData\Local\Temp/cccfvQxc.s 			page 32


 1765      3037 3035 
 1765      3235 2F62 
 1766 003d 00        		.byte	0
 1767 003e 00        		.byte	0x0
 1768 003f 7374 6469 		.string	"stdint.h"
 1768      6E74 2E68 
 1768      00
 1769 0048 01        		.uleb128 0x1
 1770 0049 00        		.uleb128 0x0
 1771 004a 00        		.uleb128 0x0
 1772 004b 696E 7474 		.string	"inttypes.h"
 1772      7970 6573 
 1772      2E68 00
 1773 0056 01        		.uleb128 0x1
 1774 0057 00        		.uleb128 0x0
 1775 0058 00        		.uleb128 0x0
 1776 0059 7574 696C 		.string	"util/delay_basic.h"
 1776      2F64 656C 
 1776      6179 5F62 
 1776      6173 6963 
 1776      2E68 00
 1777 006c 01        		.uleb128 0x1
 1778 006d 00        		.uleb128 0x0
 1779 006e 00        		.uleb128 0x0
 1780 006f 7574 696C 		.string	"util/delay.h"
 1780      2F64 656C 
 1780      6179 2E68 
 1780      00
 1781 007c 01        		.uleb128 0x1
 1782 007d 00        		.uleb128 0x0
 1783 007e 00        		.uleb128 0x0
 1784 007f 6C65 646D 		.string	"ledmatrix.c"
 1784      6174 7269 
 1784      782E 6300 
 1785 008b 00        		.uleb128 0x0
 1786 008c 00        		.uleb128 0x0
 1787 008d 00        		.uleb128 0x0
 1788 008e 00        		.byte	0x0
 1789               	.LELTP0:
 1790 008f 00        		.byte	0x0
 1791 0090 05        		.uleb128 0x5
 1792 0091 02        		.byte	0x2
 1793 0092 0000 0000 		.long	.LM1
 1794 0096 04        		.byte	0x4
 1795 0097 05        		.uleb128 0x5
 1796 0098 32        		.byte	0x32
 1797 0099 00        		.byte	0x0
 1798 009a 05        		.uleb128 0x5
 1799 009b 02        		.byte	0x2
 1800 009c 0000 0000 		.long	.LM2
 1801 00a0 15        		.byte	0x15
 1802 00a1 00        		.byte	0x0
 1803 00a2 05        		.uleb128 0x5
 1804 00a3 02        		.byte	0x2
 1805 00a4 0000 0000 		.long	.LM3
 1806 00a8 15        		.byte	0x15
 1807 00a9 00        		.byte	0x0
GAS LISTING C:\Users\kees2125\AppData\Local\Temp/cccfvQxc.s 			page 33


 1808 00aa 05        		.uleb128 0x5
 1809 00ab 02        		.byte	0x2
 1810 00ac 0000 0000 		.long	.LM4
 1811 00b0 20        		.byte	0x20
 1812 00b1 00        		.byte	0x0
 1813 00b2 05        		.uleb128 0x5
 1814 00b3 02        		.byte	0x2
 1815 00b4 0000 0000 		.long	.LM5
 1816 00b8 15        		.byte	0x15
 1817 00b9 00        		.byte	0x0
 1818 00ba 05        		.uleb128 0x5
 1819 00bb 02        		.byte	0x2
 1820 00bc 0000 0000 		.long	.LM6
 1821 00c0 15        		.byte	0x15
 1822 00c1 00        		.byte	0x0
 1823 00c2 05        		.uleb128 0x5
 1824 00c3 02        		.byte	0x2
 1825 00c4 0000 0000 		.long	.LM7
 1826 00c8 20        		.byte	0x20
 1827 00c9 00        		.byte	0x0
 1828 00ca 05        		.uleb128 0x5
 1829 00cb 02        		.byte	0x2
 1830 00cc 0000 0000 		.long	.LM8
 1831 00d0 15        		.byte	0x15
 1832 00d1 00        		.byte	0x0
 1833 00d2 05        		.uleb128 0x5
 1834 00d3 02        		.byte	0x2
 1835 00d4 0000 0000 		.long	.LM9
 1836 00d8 20        		.byte	0x20
 1837 00d9 00        		.byte	0x0
 1838 00da 05        		.uleb128 0x5
 1839 00db 02        		.byte	0x2
 1840 00dc 0000 0000 		.long	.LM10
 1841 00e0 15        		.byte	0x15
 1842 00e1 00        		.byte	0x0
 1843 00e2 05        		.uleb128 0x5
 1844 00e3 02        		.byte	0x2
 1845 00e4 0000 0000 		.long	.LM11
 1846 00e8 15        		.byte	0x15
 1847 00e9 00        		.byte	0x0
 1848 00ea 05        		.uleb128 0x5
 1849 00eb 02        		.byte	0x2
 1850 00ec 0000 0000 		.long	.LM12
 1851 00f0 15        		.byte	0x15
 1852 00f1 00        		.byte	0x0
 1853 00f2 05        		.uleb128 0x5
 1854 00f3 02        		.byte	0x2
 1855 00f4 0000 0000 		.long	.LM13
 1856 00f8 22        		.byte	0x22
 1857 00f9 00        		.byte	0x0
 1858 00fa 05        		.uleb128 0x5
 1859 00fb 02        		.byte	0x2
 1860 00fc 0000 0000 		.long	.LM14
 1861 0100 04        		.byte	0x4
 1862 0101 03        		.uleb128 0x3
 1863 0102 24        		.byte	0x24
 1864 0103 00        		.byte	0x0
GAS LISTING C:\Users\kees2125\AppData\Local\Temp/cccfvQxc.s 			page 34


 1865 0104 05        		.uleb128 0x5
 1866 0105 02        		.byte	0x2
 1867 0106 0000 0000 		.long	.LM15
 1868 010a 04        		.byte	0x4
 1869 010b 05        		.uleb128 0x5
 1870 010c 03        		.byte	0x3
 1871 010d 71        		.sleb128 -15
 1872 010e 01        		.byte	0x1
 1873 010f 00        		.byte	0x0
 1874 0110 05        		.uleb128 0x5
 1875 0111 02        		.byte	0x2
 1876 0112 0000 0000 		.long	.LM16
 1877 0116 1A        		.byte	0x1a
 1878 0117 00        		.byte	0x0
 1879 0118 05        		.uleb128 0x5
 1880 0119 02        		.byte	0x2
 1881 011a 0000 0000 		.long	.LM17
 1882 011e 15        		.byte	0x15
 1883 011f 00        		.byte	0x0
 1884 0120 05        		.uleb128 0x5
 1885 0121 02        		.byte	0x2
 1886 0122 0000 0000 		.long	.LM18
 1887 0126 01        		.byte	0x1
 1888 0127 00        		.byte	0x0
 1889 0128 05        		.uleb128 0x5
 1890 0129 02        		.byte	0x2
 1891 012a 0000 0000 		.long	.LM19
 1892 012e 03        		.byte	0x3
 1893 012f 4D        		.sleb128 -51
 1894 0130 01        		.byte	0x1
 1895 0131 00        		.byte	0x0
 1896 0132 05        		.uleb128 0x5
 1897 0133 02        		.byte	0x2
 1898 0134 0000 0000 		.long	.LM20
 1899 0138 15        		.byte	0x15
 1900 0139 00        		.byte	0x0
 1901 013a 05        		.uleb128 0x5
 1902 013b 02        		.byte	0x2
 1903 013c 0000 0000 		.long	.LM21
 1904 0140 2E        		.byte	0x2e
 1905 0141 00        		.byte	0x0
 1906 0142 05        		.uleb128 0x5
 1907 0143 02        		.byte	0x2
 1908 0144 0000 0000 		.long	.LM22
 1909 0148 15        		.byte	0x15
 1910 0149 00        		.byte	0x0
 1911 014a 05        		.uleb128 0x5
 1912 014b 02        		.byte	0x2
 1913 014c 0000 0000 		.long	.LM23
 1914 0150 15        		.byte	0x15
 1915 0151 00        		.byte	0x0
 1916 0152 05        		.uleb128 0x5
 1917 0153 02        		.byte	0x2
 1918 0154 0000 0000 		.long	.LM24
 1919 0158 12        		.byte	0x12
 1920 0159 00        		.byte	0x0
 1921 015a 05        		.uleb128 0x5
GAS LISTING C:\Users\kees2125\AppData\Local\Temp/cccfvQxc.s 			page 35


 1922 015b 02        		.byte	0x2
 1923 015c 0000 0000 		.long	.LM25
 1924 0160 15        		.byte	0x15
 1925 0161 00        		.byte	0x0
 1926 0162 05        		.uleb128 0x5
 1927 0163 02        		.byte	0x2
 1928 0164 0000 0000 		.long	.LM26
 1929 0168 15        		.byte	0x15
 1930 0169 00        		.byte	0x0
 1931 016a 05        		.uleb128 0x5
 1932 016b 02        		.byte	0x2
 1933 016c 0000 0000 		.long	.LM27
 1934 0170 12        		.byte	0x12
 1935 0171 00        		.byte	0x0
 1936 0172 05        		.uleb128 0x5
 1937 0173 02        		.byte	0x2
 1938 0174 0000 0000 		.long	.LM28
 1939 0178 15        		.byte	0x15
 1940 0179 00        		.byte	0x0
 1941 017a 05        		.uleb128 0x5
 1942 017b 02        		.byte	0x2
 1943 017c 0000 0000 		.long	.LM29
 1944 0180 15        		.byte	0x15
 1945 0181 00        		.byte	0x0
 1946 0182 05        		.uleb128 0x5
 1947 0183 02        		.byte	0x2
 1948 0184 0000 0000 		.long	.LM30
 1949 0188 03        		.byte	0x3
 1950 0189 63        		.sleb128 -29
 1951 018a 01        		.byte	0x1
 1952 018b 00        		.byte	0x0
 1953 018c 05        		.uleb128 0x5
 1954 018d 02        		.byte	0x2
 1955 018e 0000 0000 		.long	.LM31
 1956 0192 15        		.byte	0x15
 1957 0193 00        		.byte	0x0
 1958 0194 05        		.uleb128 0x5
 1959 0195 02        		.byte	0x2
 1960 0196 0000 0000 		.long	.LM32
 1961 019a 2E        		.byte	0x2e
 1962 019b 00        		.byte	0x0
 1963 019c 05        		.uleb128 0x5
 1964 019d 02        		.byte	0x2
 1965 019e 0000 0000 		.long	.LM33
 1966 01a2 15        		.byte	0x15
 1967 01a3 00        		.byte	0x0
 1968 01a4 05        		.uleb128 0x5
 1969 01a5 02        		.byte	0x2
 1970 01a6 0000 0000 		.long	.LM34
 1971 01aa 15        		.byte	0x15
 1972 01ab 00        		.byte	0x0
 1973 01ac 05        		.uleb128 0x5
 1974 01ad 02        		.byte	0x2
 1975 01ae 0000 0000 		.long	.LM35
 1976 01b2 12        		.byte	0x12
 1977 01b3 00        		.byte	0x0
 1978 01b4 05        		.uleb128 0x5
GAS LISTING C:\Users\kees2125\AppData\Local\Temp/cccfvQxc.s 			page 36


 1979 01b5 02        		.byte	0x2
 1980 01b6 0000 0000 		.long	.LM36
 1981 01ba 15        		.byte	0x15
 1982 01bb 00        		.byte	0x0
 1983 01bc 05        		.uleb128 0x5
 1984 01bd 02        		.byte	0x2
 1985 01be 0000 0000 		.long	.LM37
 1986 01c2 15        		.byte	0x15
 1987 01c3 00        		.byte	0x0
 1988 01c4 05        		.uleb128 0x5
 1989 01c5 02        		.byte	0x2
 1990 01c6 0000 0000 		.long	.LM38
 1991 01ca 12        		.byte	0x12
 1992 01cb 00        		.byte	0x0
 1993 01cc 05        		.uleb128 0x5
 1994 01cd 02        		.byte	0x2
 1995 01ce 0000 0000 		.long	.LM39
 1996 01d2 15        		.byte	0x15
 1997 01d3 00        		.byte	0x0
 1998 01d4 05        		.uleb128 0x5
 1999 01d5 02        		.byte	0x2
 2000 01d6 0000 0000 		.long	.LM40
 2001 01da 15        		.byte	0x15
 2002 01db 00        		.byte	0x0
 2003 01dc 05        		.uleb128 0x5
 2004 01dd 02        		.byte	0x2
 2005 01de 0000 0000 		.long	.LM41
 2006 01e2 03        		.byte	0x3
 2007 01e3 63        		.sleb128 -29
 2008 01e4 01        		.byte	0x1
 2009 01e5 00        		.byte	0x0
 2010 01e6 05        		.uleb128 0x5
 2011 01e7 02        		.byte	0x2
 2012 01e8 0000 0000 		.long	.LM42
 2013 01ec 15        		.byte	0x15
 2014 01ed 00        		.byte	0x0
 2015 01ee 05        		.uleb128 0x5
 2016 01ef 02        		.byte	0x2
 2017 01f0 0000 0000 		.long	.LM43
 2018 01f4 2E        		.byte	0x2e
 2019 01f5 00        		.byte	0x0
 2020 01f6 05        		.uleb128 0x5
 2021 01f7 02        		.byte	0x2
 2022 01f8 0000 0000 		.long	.LM44
 2023 01fc 15        		.byte	0x15
 2024 01fd 00        		.byte	0x0
 2025 01fe 05        		.uleb128 0x5
 2026 01ff 02        		.byte	0x2
 2027 0200 0000 0000 		.long	.LM45
 2028 0204 15        		.byte	0x15
 2029 0205 00        		.byte	0x0
 2030 0206 05        		.uleb128 0x5
 2031 0207 02        		.byte	0x2
 2032 0208 0000 0000 		.long	.LM46
 2033 020c 12        		.byte	0x12
 2034 020d 00        		.byte	0x0
 2035 020e 05        		.uleb128 0x5
GAS LISTING C:\Users\kees2125\AppData\Local\Temp/cccfvQxc.s 			page 37


 2036 020f 02        		.byte	0x2
 2037 0210 0000 0000 		.long	.LM47
 2038 0214 15        		.byte	0x15
 2039 0215 00        		.byte	0x0
 2040 0216 05        		.uleb128 0x5
 2041 0217 02        		.byte	0x2
 2042 0218 0000 0000 		.long	.LM48
 2043 021c 15        		.byte	0x15
 2044 021d 00        		.byte	0x0
 2045 021e 05        		.uleb128 0x5
 2046 021f 02        		.byte	0x2
 2047 0220 0000 0000 		.long	.LM49
 2048 0224 12        		.byte	0x12
 2049 0225 00        		.byte	0x0
 2050 0226 05        		.uleb128 0x5
 2051 0227 02        		.byte	0x2
 2052 0228 0000 0000 		.long	.LM50
 2053 022c 15        		.byte	0x15
 2054 022d 00        		.byte	0x0
 2055 022e 05        		.uleb128 0x5
 2056 022f 02        		.byte	0x2
 2057 0230 0000 0000 		.long	.LM51
 2058 0234 15        		.byte	0x15
 2059 0235 00        		.byte	0x0
 2060 0236 05        		.uleb128 0x5
 2061 0237 02        		.byte	0x2
 2062 0238 0000 0000 		.long	.LM52
 2063 023c 03        		.byte	0x3
 2064 023d 63        		.sleb128 -29
 2065 023e 01        		.byte	0x1
 2066 023f 00        		.byte	0x0
 2067 0240 05        		.uleb128 0x5
 2068 0241 02        		.byte	0x2
 2069 0242 0000 0000 		.long	.LM53
 2070 0246 15        		.byte	0x15
 2071 0247 00        		.byte	0x0
 2072 0248 05        		.uleb128 0x5
 2073 0249 02        		.byte	0x2
 2074 024a 0000 0000 		.long	.LM54
 2075 024e 2E        		.byte	0x2e
 2076 024f 00        		.byte	0x0
 2077 0250 05        		.uleb128 0x5
 2078 0251 02        		.byte	0x2
 2079 0252 0000 0000 		.long	.LM55
 2080 0256 15        		.byte	0x15
 2081 0257 00        		.byte	0x0
 2082 0258 05        		.uleb128 0x5
 2083 0259 02        		.byte	0x2
 2084 025a 0000 0000 		.long	.LM56
 2085 025e 15        		.byte	0x15
 2086 025f 00        		.byte	0x0
 2087 0260 05        		.uleb128 0x5
 2088 0261 02        		.byte	0x2
 2089 0262 0000 0000 		.long	.LM57
 2090 0266 12        		.byte	0x12
 2091 0267 00        		.byte	0x0
 2092 0268 05        		.uleb128 0x5
GAS LISTING C:\Users\kees2125\AppData\Local\Temp/cccfvQxc.s 			page 38


 2093 0269 02        		.byte	0x2
 2094 026a 0000 0000 		.long	.LM58
 2095 026e 15        		.byte	0x15
 2096 026f 00        		.byte	0x0
 2097 0270 05        		.uleb128 0x5
 2098 0271 02        		.byte	0x2
 2099 0272 0000 0000 		.long	.LM59
 2100 0276 15        		.byte	0x15
 2101 0277 00        		.byte	0x0
 2102 0278 05        		.uleb128 0x5
 2103 0279 02        		.byte	0x2
 2104 027a 0000 0000 		.long	.LM60
 2105 027e 12        		.byte	0x12
 2106 027f 00        		.byte	0x0
 2107 0280 05        		.uleb128 0x5
 2108 0281 02        		.byte	0x2
 2109 0282 0000 0000 		.long	.LM61
 2110 0286 15        		.byte	0x15
 2111 0287 00        		.byte	0x0
 2112 0288 05        		.uleb128 0x5
 2113 0289 02        		.byte	0x2
 2114 028a 0000 0000 		.long	.LM62
 2115 028e 15        		.byte	0x15
 2116 028f 00        		.byte	0x0
 2117 0290 05        		.uleb128 0x5
 2118 0291 02        		.byte	0x2
 2119 0292 0000 0000 		.long	.LM63
 2120 0296 03        		.byte	0x3
 2121 0297 63        		.sleb128 -29
 2122 0298 01        		.byte	0x1
 2123 0299 00        		.byte	0x0
 2124 029a 05        		.uleb128 0x5
 2125 029b 02        		.byte	0x2
 2126 029c 0000 0000 		.long	.LM64
 2127 02a0 15        		.byte	0x15
 2128 02a1 00        		.byte	0x0
 2129 02a2 05        		.uleb128 0x5
 2130 02a3 02        		.byte	0x2
 2131 02a4 0000 0000 		.long	.LM65
 2132 02a8 2E        		.byte	0x2e
 2133 02a9 00        		.byte	0x0
 2134 02aa 05        		.uleb128 0x5
 2135 02ab 02        		.byte	0x2
 2136 02ac 0000 0000 		.long	.LM66
 2137 02b0 15        		.byte	0x15
 2138 02b1 00        		.byte	0x0
 2139 02b2 05        		.uleb128 0x5
 2140 02b3 02        		.byte	0x2
 2141 02b4 0000 0000 		.long	.LM67
 2142 02b8 15        		.byte	0x15
 2143 02b9 00        		.byte	0x0
 2144 02ba 05        		.uleb128 0x5
 2145 02bb 02        		.byte	0x2
 2146 02bc 0000 0000 		.long	.LM68
 2147 02c0 12        		.byte	0x12
 2148 02c1 00        		.byte	0x0
 2149 02c2 05        		.uleb128 0x5
GAS LISTING C:\Users\kees2125\AppData\Local\Temp/cccfvQxc.s 			page 39


 2150 02c3 02        		.byte	0x2
 2151 02c4 0000 0000 		.long	.LM69
 2152 02c8 15        		.byte	0x15
 2153 02c9 00        		.byte	0x0
 2154 02ca 05        		.uleb128 0x5
 2155 02cb 02        		.byte	0x2
 2156 02cc 0000 0000 		.long	.LM70
 2157 02d0 15        		.byte	0x15
 2158 02d1 00        		.byte	0x0
 2159 02d2 05        		.uleb128 0x5
 2160 02d3 02        		.byte	0x2
 2161 02d4 0000 0000 		.long	.LM71
 2162 02d8 12        		.byte	0x12
 2163 02d9 00        		.byte	0x0
 2164 02da 05        		.uleb128 0x5
 2165 02db 02        		.byte	0x2
 2166 02dc 0000 0000 		.long	.LM72
 2167 02e0 15        		.byte	0x15
 2168 02e1 00        		.byte	0x0
 2169 02e2 05        		.uleb128 0x5
 2170 02e3 02        		.byte	0x2
 2171 02e4 0000 0000 		.long	.LM73
 2172 02e8 15        		.byte	0x15
 2173 02e9 00        		.byte	0x0
 2174 02ea 05        		.uleb128 0x5
 2175 02eb 02        		.byte	0x2
 2176 02ec 0000 0000 		.long	.LM74
 2177 02f0 03        		.byte	0x3
 2178 02f1 63        		.sleb128 -29
 2179 02f2 01        		.byte	0x1
 2180 02f3 00        		.byte	0x0
 2181 02f4 05        		.uleb128 0x5
 2182 02f5 02        		.byte	0x2
 2183 02f6 0000 0000 		.long	.LM75
 2184 02fa 15        		.byte	0x15
 2185 02fb 00        		.byte	0x0
 2186 02fc 05        		.uleb128 0x5
 2187 02fd 02        		.byte	0x2
 2188 02fe 0000 0000 		.long	.LM76
 2189 0302 2E        		.byte	0x2e
 2190 0303 00        		.byte	0x0
 2191 0304 05        		.uleb128 0x5
 2192 0305 02        		.byte	0x2
 2193 0306 0000 0000 		.long	.LM77
 2194 030a 15        		.byte	0x15
 2195 030b 00        		.byte	0x0
 2196 030c 05        		.uleb128 0x5
 2197 030d 02        		.byte	0x2
 2198 030e 0000 0000 		.long	.LM78
 2199 0312 15        		.byte	0x15
 2200 0313 00        		.byte	0x0
 2201 0314 05        		.uleb128 0x5
 2202 0315 02        		.byte	0x2
 2203 0316 0000 0000 		.long	.LM79
 2204 031a 12        		.byte	0x12
 2205 031b 00        		.byte	0x0
 2206 031c 05        		.uleb128 0x5
GAS LISTING C:\Users\kees2125\AppData\Local\Temp/cccfvQxc.s 			page 40


 2207 031d 02        		.byte	0x2
 2208 031e 0000 0000 		.long	.LM80
 2209 0322 15        		.byte	0x15
 2210 0323 00        		.byte	0x0
 2211 0324 05        		.uleb128 0x5
 2212 0325 02        		.byte	0x2
 2213 0326 0000 0000 		.long	.LM81
 2214 032a 15        		.byte	0x15
 2215 032b 00        		.byte	0x0
 2216 032c 05        		.uleb128 0x5
 2217 032d 02        		.byte	0x2
 2218 032e 0000 0000 		.long	.LM82
 2219 0332 12        		.byte	0x12
 2220 0333 00        		.byte	0x0
 2221 0334 05        		.uleb128 0x5
 2222 0335 02        		.byte	0x2
 2223 0336 0000 0000 		.long	.LM83
 2224 033a 15        		.byte	0x15
 2225 033b 00        		.byte	0x0
 2226 033c 05        		.uleb128 0x5
 2227 033d 02        		.byte	0x2
 2228 033e 0000 0000 		.long	.LM84
 2229 0342 15        		.byte	0x15
 2230 0343 00        		.byte	0x0
 2231 0344 05        		.uleb128 0x5
 2232 0345 02        		.byte	0x2
 2233 0346 0000 0000 		.long	.LM85
 2234 034a 03        		.byte	0x3
 2235 034b 63        		.sleb128 -29
 2236 034c 01        		.byte	0x1
 2237 034d 00        		.byte	0x0
 2238 034e 05        		.uleb128 0x5
 2239 034f 02        		.byte	0x2
 2240 0350 0000 0000 		.long	.LM86
 2241 0354 15        		.byte	0x15
 2242 0355 00        		.byte	0x0
 2243 0356 05        		.uleb128 0x5
 2244 0357 02        		.byte	0x2
 2245 0358 0000 0000 		.long	.LM87
 2246 035c 2E        		.byte	0x2e
 2247 035d 00        		.byte	0x0
 2248 035e 05        		.uleb128 0x5
 2249 035f 02        		.byte	0x2
 2250 0360 0000 0000 		.long	.LM88
 2251 0364 15        		.byte	0x15
 2252 0365 00        		.byte	0x0
 2253 0366 05        		.uleb128 0x5
 2254 0367 02        		.byte	0x2
 2255 0368 0000 0000 		.long	.LM89
 2256 036c 15        		.byte	0x15
 2257 036d 00        		.byte	0x0
 2258 036e 05        		.uleb128 0x5
 2259 036f 02        		.byte	0x2
 2260 0370 0000 0000 		.long	.LM90
 2261 0374 12        		.byte	0x12
 2262 0375 00        		.byte	0x0
 2263 0376 05        		.uleb128 0x5
GAS LISTING C:\Users\kees2125\AppData\Local\Temp/cccfvQxc.s 			page 41


 2264 0377 02        		.byte	0x2
 2265 0378 0000 0000 		.long	.LM91
 2266 037c 15        		.byte	0x15
 2267 037d 00        		.byte	0x0
 2268 037e 05        		.uleb128 0x5
 2269 037f 02        		.byte	0x2
 2270 0380 0000 0000 		.long	.LM92
 2271 0384 15        		.byte	0x15
 2272 0385 00        		.byte	0x0
 2273 0386 05        		.uleb128 0x5
 2274 0387 02        		.byte	0x2
 2275 0388 0000 0000 		.long	.LM93
 2276 038c 12        		.byte	0x12
 2277 038d 00        		.byte	0x0
 2278 038e 05        		.uleb128 0x5
 2279 038f 02        		.byte	0x2
 2280 0390 0000 0000 		.long	.LM94
 2281 0394 15        		.byte	0x15
 2282 0395 00        		.byte	0x0
 2283 0396 05        		.uleb128 0x5
 2284 0397 02        		.byte	0x2
 2285 0398 0000 0000 		.long	.LM95
 2286 039c 15        		.byte	0x15
 2287 039d 00        		.byte	0x0
 2288 039e 05        		.uleb128 0x5
 2289 039f 02        		.byte	0x2
 2290 03a0 0000 0000 		.long	.LM96
 2291 03a4 03        		.byte	0x3
 2292 03a5 71        		.sleb128 -15
 2293 03a6 01        		.byte	0x1
 2294 03a7 00        		.byte	0x0
 2295 03a8 05        		.uleb128 0x5
 2296 03a9 02        		.byte	0x2
 2297 03aa 0000 0000 		.long	.LM97
 2298 03ae 03        		.byte	0x3
 2299 03af 72        		.sleb128 -14
 2300 03b0 01        		.byte	0x1
 2301 03b1 00        		.byte	0x0
 2302 03b2 05        		.uleb128 0x5
 2303 03b3 02        		.byte	0x2
 2304 03b4 0000 0000 		.long	.LM98
 2305 03b8 15        		.byte	0x15
 2306 03b9 00        		.byte	0x0
 2307 03ba 05        		.uleb128 0x5
 2308 03bb 02        		.byte	0x2
 2309 03bc 0000 0000 		.long	.LM99
 2310 03c0 2E        		.byte	0x2e
 2311 03c1 00        		.byte	0x0
 2312 03c2 05        		.uleb128 0x5
 2313 03c3 02        		.byte	0x2
 2314 03c4 0000 0000 		.long	.LM100
 2315 03c8 15        		.byte	0x15
 2316 03c9 00        		.byte	0x0
 2317 03ca 05        		.uleb128 0x5
 2318 03cb 02        		.byte	0x2
 2319 03cc 0000 0000 		.long	.LM101
 2320 03d0 15        		.byte	0x15
GAS LISTING C:\Users\kees2125\AppData\Local\Temp/cccfvQxc.s 			page 42


 2321 03d1 00        		.byte	0x0
 2322 03d2 05        		.uleb128 0x5
 2323 03d3 02        		.byte	0x2
 2324 03d4 0000 0000 		.long	.LM102
 2325 03d8 12        		.byte	0x12
 2326 03d9 00        		.byte	0x0
 2327 03da 05        		.uleb128 0x5
 2328 03db 02        		.byte	0x2
 2329 03dc 0000 0000 		.long	.LM103
 2330 03e0 15        		.byte	0x15
 2331 03e1 00        		.byte	0x0
 2332 03e2 05        		.uleb128 0x5
 2333 03e3 02        		.byte	0x2
 2334 03e4 0000 0000 		.long	.LM104
 2335 03e8 15        		.byte	0x15
 2336 03e9 00        		.byte	0x0
 2337 03ea 05        		.uleb128 0x5
 2338 03eb 02        		.byte	0x2
 2339 03ec 0000 0000 		.long	.LM105
 2340 03f0 12        		.byte	0x12
 2341 03f1 00        		.byte	0x0
 2342 03f2 05        		.uleb128 0x5
 2343 03f3 02        		.byte	0x2
 2344 03f4 0000 0000 		.long	.LM106
 2345 03f8 15        		.byte	0x15
 2346 03f9 00        		.byte	0x0
 2347 03fa 05        		.uleb128 0x5
 2348 03fb 02        		.byte	0x2
 2349 03fc 0000 0000 		.long	.LM107
 2350 0400 15        		.byte	0x15
 2351 0401 00        		.byte	0x0
 2352 0402 05        		.uleb128 0x5
 2353 0403 02        		.byte	0x2
 2354 0404 0000 0000 		.long	.LM108
 2355 0408 03        		.byte	0x3
 2356 0409 71        		.sleb128 -15
 2357 040a 01        		.byte	0x1
 2358 040b 00        		.byte	0x0
 2359 040c 05        		.uleb128 0x5
 2360 040d 02        		.byte	0x2
 2361 040e 0000 0000 		.long	.LM109
 2362 0412 78        		.byte	0x78
 2363 0413 00        		.byte	0x0
 2364 0414 05        		.uleb128 0x5
 2365 0415 02        		.byte	0x2
 2366 0416 0000 0000 		.long	.LM110
 2367 041a 15        		.byte	0x15
 2368 041b 00        		.byte	0x0
 2369 041c 05        		.uleb128 0x5
 2370 041d 02        		.byte	0x2
 2371 041e 0000 0000 		.long	.LM111
 2372 0422 15        		.byte	0x15
 2373 0423 00        		.byte	0x0
 2374 0424 05        		.uleb128 0x5
 2375 0425 02        		.byte	0x2
 2376 0426 0000 0000 		.long	.LM112
 2377 042a 15        		.byte	0x15
GAS LISTING C:\Users\kees2125\AppData\Local\Temp/cccfvQxc.s 			page 43


 2378 042b 00        		.byte	0x0
 2379 042c 05        		.uleb128 0x5
 2380 042d 02        		.byte	0x2
 2381 042e 0000 0000 		.long	.LM113
 2382 0432 15        		.byte	0x15
 2383 0433 00        		.byte	0x0
 2384 0434 05        		.uleb128 0x5
 2385 0435 02        		.byte	0x2
 2386 0436 0000 0000 		.long	.LM114
 2387 043a 17        		.byte	0x17
 2388 043b 00        		.byte	0x0
 2389 043c 05        		.uleb128 0x5
 2390 043d 02        		.byte	0x2
 2391 043e 0000 0000 		.long	.LM115
 2392 0442 15        		.byte	0x15
 2393 0443 00        		.byte	0x0
 2394 0444 05        		.uleb128 0x5
 2395 0445 02        		.byte	0x2
 2396 0446 0000 0000 		.long	.LM116
 2397 044a 15        		.byte	0x15
 2398 044b 00        		.byte	0x0
 2399 044c 05        		.uleb128 0x5
 2400 044d 02        		.byte	0x2
 2401 044e 0000 0000 		.long	.LM117
 2402 0452 15        		.byte	0x15
 2403 0453 00        		.byte	0x0
 2404 0454 05        		.uleb128 0x5
 2405 0455 02        		.byte	0x2
 2406 0456 0000 0000 		.long	.LM118
 2407 045a 15        		.byte	0x15
 2408 045b 00        		.byte	0x0
 2409 045c 05        		.uleb128 0x5
 2410 045d 02        		.byte	0x2
 2411 045e 0000 0000 		.long	.LM119
 2412 0462 15        		.byte	0x15
 2413 0463 00        		.byte	0x0
 2414 0464 05        		.uleb128 0x5
 2415 0465 02        		.byte	0x2
 2416 0466 0000 0000 		.long	.LM120
 2417 046a 15        		.byte	0x15
 2418 046b 00        		.byte	0x0
 2419 046c 05        		.uleb128 0x5
 2420 046d 02        		.byte	0x2
 2421 046e 0000 0000 		.long	.LM121
 2422 0472 15        		.byte	0x15
 2423 0473 00        		.byte	0x0
 2424 0474 05        		.uleb128 0x5
 2425 0475 02        		.byte	0x2
 2426 0476 0000 0000 		.long	.LM122
 2427 047a 15        		.byte	0x15
 2428 047b 00        		.byte	0x0
 2429 047c 05        		.uleb128 0x5
 2430 047d 02        		.byte	0x2
 2431 047e 0000 0000 		.long	.LM123
 2432 0482 17        		.byte	0x17
 2433 0483 00        		.byte	0x0
 2434 0484 05        		.uleb128 0x5
GAS LISTING C:\Users\kees2125\AppData\Local\Temp/cccfvQxc.s 			page 44


 2435 0485 02        		.byte	0x2
 2436 0486 0000 0000 		.long	.LM124
 2437 048a 15        		.byte	0x15
 2438 048b 00        		.byte	0x0
 2439 048c 05        		.uleb128 0x5
 2440 048d 02        		.byte	0x2
 2441 048e 0000 0000 		.long	.LM125
 2442 0492 15        		.byte	0x15
 2443 0493 00        		.byte	0x0
 2444 0494 05        		.uleb128 0x5
 2445 0495 02        		.byte	0x2
 2446 0496 0000 0000 		.long	.LM126
 2447 049a 15        		.byte	0x15
 2448 049b 00        		.byte	0x0
 2449 049c 05        		.uleb128 0x5
 2450 049d 02        		.byte	0x2
 2451 049e 0000 0000 		.long	.LM127
 2452 04a2 15        		.byte	0x15
 2453 04a3 00        		.byte	0x0
 2454 04a4 05        		.uleb128 0x5
 2455 04a5 02        		.byte	0x2
 2456 04a6 0000 0000 		.long	.LM128
 2457 04aa 17        		.byte	0x17
 2458 04ab 00        		.byte	0x0
 2459 04ac 05        		.uleb128 0x5
 2460 04ad 02        		.byte	0x2
 2461 04ae 0000 0000 		.long	.LM129
 2462 04b2 15        		.byte	0x15
 2463 04b3 00        		.byte	0x0
 2464 04b4 05        		.uleb128 0x5
 2465 04b5 02        		.byte	0x2
 2466 04b6 0000 0000 		.long	.LM130
 2467 04ba 01        		.byte	0x1
 2468 04bb 00        		.byte	0x0
 2469 04bc 05        		.uleb128 0x5
 2470 04bd 02        		.byte	0x2
 2471 04be 0000 0000 		.long	.LM131
 2472 04c2 17        		.byte	0x17
 2473 04c3 00        		.byte	0x0
 2474 04c4 05        		.uleb128 0x5
 2475 04c5 02        		.byte	0x2
 2476 04c6 0000 0000 		.long	.LM132
 2477 04ca 15        		.byte	0x15
 2478 04cb 00        		.byte	0x0
 2479 04cc 05        		.uleb128 0x5
 2480 04cd 02        		.byte	0x2
 2481 04ce 0000 0000 		.long	.LM133
 2482 04d2 15        		.byte	0x15
 2483 04d3 00        		.byte	0x0
 2484 04d4 05        		.uleb128 0x5
 2485 04d5 02        		.byte	0x2
 2486 04d6 0000 0000 		.long	.LM134
 2487 04da 15        		.byte	0x15
 2488 04db 00        		.byte	0x0
 2489 04dc 05        		.uleb128 0x5
 2490 04dd 02        		.byte	0x2
 2491 04de 0000 0000 		.long	.LM135
GAS LISTING C:\Users\kees2125\AppData\Local\Temp/cccfvQxc.s 			page 45


 2492 04e2 17        		.byte	0x17
 2493 04e3 00        		.byte	0x0
 2494 04e4 05        		.uleb128 0x5
 2495 04e5 02        		.byte	0x2
 2496 04e6 0000 0000 		.long	.LM136
 2497 04ea 15        		.byte	0x15
 2498 04eb 00        		.byte	0x0
 2499 04ec 05        		.uleb128 0x5
 2500 04ed 02        		.byte	0x2
 2501 04ee 0000 0000 		.long	.LM137
 2502 04f2 15        		.byte	0x15
 2503 04f3 00        		.byte	0x0
 2504 04f4 05        		.uleb128 0x5
 2505 04f5 02        		.byte	0x2
 2506 04f6 0000 0000 		.long	.LM138
 2507 04fa 15        		.byte	0x15
 2508 04fb 00        		.byte	0x0
 2509 04fc 05        		.uleb128 0x5
 2510 04fd 02        		.byte	0x2
 2511 04fe 0000 0000 		.long	.LM139
 2512 0502 17        		.byte	0x17
 2513 0503 00        		.byte	0x0
 2514 0504 05        		.uleb128 0x5
 2515 0505 02        		.byte	0x2
 2516 0506 0000 0000 		.long	.LM140
 2517 050a 15        		.byte	0x15
 2518 050b 00        		.byte	0x0
 2519 050c 05        		.uleb128 0x5
 2520 050d 02        		.byte	0x2
 2521 050e 0000 0000 		.long	.LM141
 2522 0512 15        		.byte	0x15
 2523 0513 00        		.byte	0x0
 2524 0514 05        		.uleb128 0x5
 2525 0515 02        		.byte	0x2
 2526 0516 0000 0000 		.long	.LM142
 2527 051a 15        		.byte	0x15
 2528 051b 00        		.byte	0x0
 2529 051c 05        		.uleb128 0x5
 2530 051d 02        		.byte	0x2
 2531 051e 0000 0000 		.long	.LM143
 2532 0522 17        		.byte	0x17
 2533 0523 00        		.byte	0x0
 2534 0524 05        		.uleb128 0x5
 2535 0525 02        		.byte	0x2
 2536 0526 0000 0000 		.long	.LM144
 2537 052a 15        		.byte	0x15
 2538 052b 00        		.byte	0x0
 2539 052c 05        		.uleb128 0x5
 2540 052d 02        		.byte	0x2
 2541 052e 0000 0000 		.long	.LM145
 2542 0532 15        		.byte	0x15
 2543 0533 00        		.byte	0x0
 2544 0534 05        		.uleb128 0x5
 2545 0535 02        		.byte	0x2
 2546 0536 0000 0000 		.long	.LM146
 2547 053a 15        		.byte	0x15
 2548 053b 00        		.byte	0x0
GAS LISTING C:\Users\kees2125\AppData\Local\Temp/cccfvQxc.s 			page 46


 2549 053c 05        		.uleb128 0x5
 2550 053d 02        		.byte	0x2
 2551 053e 0000 0000 		.long	.LM147
 2552 0542 17        		.byte	0x17
 2553 0543 00        		.byte	0x0
 2554 0544 05        		.uleb128 0x5
 2555 0545 02        		.byte	0x2
 2556 0546 0000 0000 		.long	.LM148
 2557 054a 15        		.byte	0x15
 2558 054b 00        		.byte	0x0
 2559 054c 05        		.uleb128 0x5
 2560 054d 02        		.byte	0x2
 2561 054e 0000 0000 		.long	.LM149
 2562 0552 15        		.byte	0x15
 2563 0553 00        		.byte	0x0
 2564 0554 05        		.uleb128 0x5
 2565 0555 02        		.byte	0x2
 2566 0556 0000 0000 		.long	.LM150
 2567 055a 18        		.byte	0x18
 2568 055b 00        		.byte	0x0
 2569 055c 05        		.uleb128 0x5
 2570 055d 02        		.byte	0x2
 2571 055e 0000 0000 		.long	.LM151
 2572 0562 1A        		.byte	0x1a
 2573 0563 00        		.byte	0x0
 2574 0564 05        		.uleb128 0x5
 2575 0565 02        		.byte	0x2
 2576 0566 0000 0000 		.long	.LM152
 2577 056a 15        		.byte	0x15
 2578 056b 00        		.byte	0x0
 2579 056c 05        		.uleb128 0x5
 2580 056d 02        		.byte	0x2
 2581 056e 0000 0000 		.long	.LM153
 2582 0572 15        		.byte	0x15
 2583 0573 00        		.byte	0x0
 2584 0574 05        		.uleb128 0x5
 2585 0575 02        		.byte	0x2
 2586 0576 0000 0000 		.long	.LM154
 2587 057a 15        		.byte	0x15
 2588 057b 00        		.byte	0x0
 2589 057c 05        		.uleb128 0x5
 2590 057d 02        		.byte	0x2
 2591 057e 0000 0000 		.long	.LM155
 2592 0582 17        		.byte	0x17
 2593 0583 00        		.byte	0x0
 2594 0584 05        		.uleb128 0x5
 2595 0585 02        		.byte	0x2
 2596 0586 0000 0000 		.long	.LM156
 2597 058a 15        		.byte	0x15
 2598 058b 00        		.byte	0x0
 2599 058c 05        		.uleb128 0x5
 2600 058d 02        		.byte	0x2
 2601 058e 0000 0000 		.long	.LM157
 2602 0592 15        		.byte	0x15
 2603 0593 00        		.byte	0x0
 2604 0594 05        		.uleb128 0x5
 2605 0595 02        		.byte	0x2
GAS LISTING C:\Users\kees2125\AppData\Local\Temp/cccfvQxc.s 			page 47


 2606 0596 0000 0000 		.long	.LM158
 2607 059a 15        		.byte	0x15
 2608 059b 00        		.byte	0x0
 2609 059c 05        		.uleb128 0x5
 2610 059d 02        		.byte	0x2
 2611 059e 0000 0000 		.long	.LM159
 2612 05a2 17        		.byte	0x17
 2613 05a3 00        		.byte	0x0
 2614 05a4 05        		.uleb128 0x5
 2615 05a5 02        		.byte	0x2
 2616 05a6 0000 0000 		.long	.LM160
 2617 05aa 15        		.byte	0x15
 2618 05ab 00        		.byte	0x0
 2619 05ac 05        		.uleb128 0x5
 2620 05ad 02        		.byte	0x2
 2621 05ae 0000 0000 		.long	.LM161
 2622 05b2 15        		.byte	0x15
 2623 05b3 00        		.byte	0x0
 2624 05b4 05        		.uleb128 0x5
 2625 05b5 02        		.byte	0x2
 2626 05b6 0000 0000 		.long	.LM162
 2627 05ba 15        		.byte	0x15
 2628 05bb 00        		.byte	0x0
 2629 05bc 05        		.uleb128 0x5
 2630 05bd 02        		.byte	0x2
 2631 05be 0000 0000 		.long	.LM163
 2632 05c2 17        		.byte	0x17
 2633 05c3 00        		.byte	0x0
 2634 05c4 05        		.uleb128 0x5
 2635 05c5 02        		.byte	0x2
 2636 05c6 0000 0000 		.long	.LM164
 2637 05ca 15        		.byte	0x15
 2638 05cb 00        		.byte	0x0
 2639 05cc 05        		.uleb128 0x5
 2640 05cd 02        		.byte	0x2
 2641 05ce 0000 0000 		.long	.LM165
 2642 05d2 15        		.byte	0x15
 2643 05d3 00        		.byte	0x0
 2644 05d4 05        		.uleb128 0x5
 2645 05d5 02        		.byte	0x2
 2646 05d6 0000 0000 		.long	.LM166
 2647 05da 15        		.byte	0x15
 2648 05db 00        		.byte	0x0
 2649 05dc 05        		.uleb128 0x5
 2650 05dd 02        		.byte	0x2
 2651 05de 0000 0000 		.long	.LM167
 2652 05e2 1A        		.byte	0x1a
 2653 05e3 00        		.byte	0x0
 2654 05e4 05        		.uleb128 0x5
 2655 05e5 02        		.byte	0x2
 2656 05e6 0000 0000 		.long	.LM168
 2657 05ea 15        		.byte	0x15
 2658 05eb 00        		.byte	0x0
 2659 05ec 05        		.uleb128 0x5
 2660 05ed 02        		.byte	0x2
 2661 05ee 0000 0000 		.long	.LM169
 2662 05f2 16        		.byte	0x16
GAS LISTING C:\Users\kees2125\AppData\Local\Temp/cccfvQxc.s 			page 48


 2663 05f3 00        		.byte	0x0
 2664 05f4 05        		.uleb128 0x5
 2665 05f5 02        		.byte	0x2
 2666 05f6 0000 0000 		.long	.LM170
 2667 05fa 17        		.byte	0x17
 2668 05fb 00        		.byte	0x0
 2669 05fc 05        		.uleb128 0x5
 2670 05fd 02        		.byte	0x2
 2671 05fe 0000 0000 		.long	.LM171
 2672 0602 16        		.byte	0x16
 2673 0603 00        		.byte	0x0
 2674 0604 05        		.uleb128 0x5
 2675 0605 02        		.byte	0x2
 2676 0606 0000 0000 		.long	.LM172
 2677 060a 16        		.byte	0x16
 2678 060b 00        		.byte	0x0
 2679 060c 05        		.uleb128 0x5
 2680 060d 02        		.byte	0x2
 2681 060e 0000 0000 		.long	.LM173
 2682 0612 15        		.byte	0x15
 2683 0613 00        		.byte	0x0
 2684 0614 05        		.uleb128 0x5
 2685 0615 02        		.byte	0x2
 2686 0616 0000 0000 		.long	.LM174
 2687 061a 0D        		.byte	0xd
 2688 061b 00        		.byte	0x0
 2689 061c 05        		.uleb128 0x5
 2690 061d 02        		.byte	0x2
 2691 061e 0000 0000 		.long	.LM175
 2692 0622 21        		.byte	0x21
 2693 0623 00        		.byte	0x0
 2694 0624 05        		.uleb128 0x5
 2695 0625 02        		.byte	0x2
 2696 0626 0000 0000 		.long	.LM176
 2697 062a 17        		.byte	0x17
 2698 062b 00        		.byte	0x0
 2699 062c 05        		.uleb128 0x5
 2700 062d 02        		.byte	0x2
 2701 062e 0000 0000 		.long	.LM177
 2702 0632 16        		.byte	0x16
 2703 0633 00        		.byte	0x0
 2704 0634 05        		.uleb128 0x5
 2705 0635 02        		.byte	0x2
 2706 0636 0000 0000 		.long	.LM178
 2707 063a 16        		.byte	0x16
 2708 063b 00        		.byte	0x0
 2709 063c 05        		.uleb128 0x5
 2710 063d 02        		.byte	0x2
 2711 063e 0000 0000 		.long	.LM179
 2712 0642 15        		.byte	0x15
 2713 0643 00        		.byte	0x0
 2714 0644 05        		.uleb128 0x5
 2715 0645 02        		.byte	0x2
 2716 0646 0000 0000 		.long	.LM180
 2717 064a 0D        		.byte	0xd
 2718 064b 00        		.byte	0x0
 2719 064c 05        		.uleb128 0x5
GAS LISTING C:\Users\kees2125\AppData\Local\Temp/cccfvQxc.s 			page 49


 2720 064d 02        		.byte	0x2
 2721 064e 0000 0000 		.long	.LM181
 2722 0652 29        		.byte	0x29
 2723 0653 00        		.byte	0x0
 2724 0654 05        		.uleb128 0x5
 2725 0655 02        		.byte	0x2
 2726 0656 0000 0000 		.long	.LM182
 2727 065a 03        		.byte	0x3
 2728 065b FD7D      		.sleb128 -259
 2729 065d 01        		.byte	0x1
 2730 065e 00        		.byte	0x0
 2731 065f 05        		.uleb128 0x5
 2732 0660 02        		.byte	0x2
 2733 0661 0000 0000 		.long	.LM183
 2734 0665 15        		.byte	0x15
 2735 0666 00        		.byte	0x0
 2736 0667 05        		.uleb128 0x5
 2737 0668 02        		.byte	0x2
 2738 0669 0000 0000 		.long	.LM184
 2739 066d 21        		.byte	0x21
 2740 066e 00        		.byte	0x0
 2741 066f 05        		.uleb128 0x5
 2742 0670 02        		.byte	0x2
 2743 0671 0000 0000 		.long	.LM185
 2744 0675 15        		.byte	0x15
 2745 0676 00        		.byte	0x0
 2746 0677 05        		.uleb128 0x5
 2747 0678 02        		.byte	0x2
 2748 0679 0000 0000 		.long	.LM186
 2749 067d 2E        		.byte	0x2e
 2750 067e 00        		.byte	0x0
 2751 067f 05        		.uleb128 0x5
 2752 0680 02        		.byte	0x2
 2753 0681 0000 0000 		.long	.LM187
 2754 0685 15        		.byte	0x15
 2755 0686 00        		.byte	0x0
 2756 0687 05        		.uleb128 0x5
 2757 0688 02        		.byte	0x2
 2758 0689 0000 0000 		.long	.LM188
 2759 068d 15        		.byte	0x15
 2760 068e 00        		.byte	0x0
 2761 068f 05        		.uleb128 0x5
 2762 0690 02        		.byte	0x2
 2763 0691 0000 0000 		.long	.LM189
 2764 0695 12        		.byte	0x12
 2765 0696 00        		.byte	0x0
 2766 0697 05        		.uleb128 0x5
 2767 0698 02        		.byte	0x2
 2768 0699 0000 0000 		.long	.LM190
 2769 069d 15        		.byte	0x15
 2770 069e 00        		.byte	0x0
 2771 069f 05        		.uleb128 0x5
 2772 06a0 02        		.byte	0x2
 2773 06a1 0000 0000 		.long	.LM191
 2774 06a5 15        		.byte	0x15
 2775 06a6 00        		.byte	0x0
 2776 06a7 05        		.uleb128 0x5
GAS LISTING C:\Users\kees2125\AppData\Local\Temp/cccfvQxc.s 			page 50


 2777 06a8 02        		.byte	0x2
 2778 06a9 0000 0000 		.long	.LM192
 2779 06ad 03        		.byte	0x3
 2780 06ae 71        		.sleb128 -15
 2781 06af 01        		.byte	0x1
 2782 06b0 00        		.byte	0x0
 2783 06b1 05        		.uleb128 0x5
 2784 06b2 02        		.byte	0x2
 2785 06b3 0000 0000 		.long	.LM193
 2786 06b7 03        		.byte	0x3
 2787 06b8 72        		.sleb128 -14
 2788 06b9 01        		.byte	0x1
 2789 06ba 00        		.byte	0x0
 2790 06bb 05        		.uleb128 0x5
 2791 06bc 02        		.byte	0x2
 2792 06bd 0000 0000 		.long	.LM194
 2793 06c1 15        		.byte	0x15
 2794 06c2 00        		.byte	0x0
 2795 06c3 05        		.uleb128 0x5
 2796 06c4 02        		.byte	0x2
 2797 06c5 0000 0000 		.long	.LM195
 2798 06c9 2E        		.byte	0x2e
 2799 06ca 00        		.byte	0x0
 2800 06cb 05        		.uleb128 0x5
 2801 06cc 02        		.byte	0x2
 2802 06cd 0000 0000 		.long	.LM196
 2803 06d1 15        		.byte	0x15
 2804 06d2 00        		.byte	0x0
 2805 06d3 05        		.uleb128 0x5
 2806 06d4 02        		.byte	0x2
 2807 06d5 0000 0000 		.long	.LM197
 2808 06d9 15        		.byte	0x15
 2809 06da 00        		.byte	0x0
 2810 06db 05        		.uleb128 0x5
 2811 06dc 02        		.byte	0x2
 2812 06dd 0000 0000 		.long	.LM198
 2813 06e1 12        		.byte	0x12
 2814 06e2 00        		.byte	0x0
 2815 06e3 05        		.uleb128 0x5
 2816 06e4 02        		.byte	0x2
 2817 06e5 0000 0000 		.long	.LM199
 2818 06e9 15        		.byte	0x15
 2819 06ea 00        		.byte	0x0
 2820 06eb 05        		.uleb128 0x5
 2821 06ec 02        		.byte	0x2
 2822 06ed 0000 0000 		.long	.LM200
 2823 06f1 15        		.byte	0x15
 2824 06f2 00        		.byte	0x0
 2825 06f3 05        		.uleb128 0x5
 2826 06f4 02        		.byte	0x2
 2827 06f5 0000 0000 		.long	.LM201
 2828 06f9 03        		.byte	0x3
 2829 06fa 71        		.sleb128 -15
 2830 06fb 01        		.byte	0x1
 2831 06fc 00        		.byte	0x0
 2832 06fd 05        		.uleb128 0x5
 2833 06fe 02        		.byte	0x2
GAS LISTING C:\Users\kees2125\AppData\Local\Temp/cccfvQxc.s 			page 51


 2834 06ff 0000 0000 		.long	.LM202
 2835 0703 03        		.byte	0x3
 2836 0704 72        		.sleb128 -14
 2837 0705 01        		.byte	0x1
 2838 0706 00        		.byte	0x0
 2839 0707 05        		.uleb128 0x5
 2840 0708 02        		.byte	0x2
 2841 0709 0000 0000 		.long	.LM203
 2842 070d 15        		.byte	0x15
 2843 070e 00        		.byte	0x0
 2844 070f 05        		.uleb128 0x5
 2845 0710 02        		.byte	0x2
 2846 0711 0000 0000 		.long	.LM204
 2847 0715 2E        		.byte	0x2e
 2848 0716 00        		.byte	0x0
 2849 0717 05        		.uleb128 0x5
 2850 0718 02        		.byte	0x2
 2851 0719 0000 0000 		.long	.LM205
 2852 071d 15        		.byte	0x15
 2853 071e 00        		.byte	0x0
 2854 071f 05        		.uleb128 0x5
 2855 0720 02        		.byte	0x2
 2856 0721 0000 0000 		.long	.LM206
 2857 0725 15        		.byte	0x15
 2858 0726 00        		.byte	0x0
 2859 0727 05        		.uleb128 0x5
 2860 0728 02        		.byte	0x2
 2861 0729 0000 0000 		.long	.LM207
 2862 072d 12        		.byte	0x12
 2863 072e 00        		.byte	0x0
 2864 072f 05        		.uleb128 0x5
 2865 0730 02        		.byte	0x2
 2866 0731 0000 0000 		.long	.LM208
 2867 0735 15        		.byte	0x15
 2868 0736 00        		.byte	0x0
 2869 0737 05        		.uleb128 0x5
 2870 0738 02        		.byte	0x2
 2871 0739 0000 0000 		.long	.LM209
 2872 073d 15        		.byte	0x15
 2873 073e 00        		.byte	0x0
 2874 073f 05        		.uleb128 0x5
 2875 0740 02        		.byte	0x2
 2876 0741 0000 0000 		.long	.LM210
 2877 0745 03        		.byte	0x3
 2878 0746 71        		.sleb128 -15
 2879 0747 01        		.byte	0x1
 2880 0748 00        		.byte	0x0
 2881 0749 05        		.uleb128 0x5
 2882 074a 02        		.byte	0x2
 2883 074b 0000 0000 		.long	.LM211
 2884 074f 03        		.byte	0x3
 2885 0750 72        		.sleb128 -14
 2886 0751 01        		.byte	0x1
 2887 0752 00        		.byte	0x0
 2888 0753 05        		.uleb128 0x5
 2889 0754 02        		.byte	0x2
 2890 0755 0000 0000 		.long	.LM212
GAS LISTING C:\Users\kees2125\AppData\Local\Temp/cccfvQxc.s 			page 52


 2891 0759 15        		.byte	0x15
 2892 075a 00        		.byte	0x0
 2893 075b 05        		.uleb128 0x5
 2894 075c 02        		.byte	0x2
 2895 075d 0000 0000 		.long	.LM213
 2896 0761 2E        		.byte	0x2e
 2897 0762 00        		.byte	0x0
 2898 0763 05        		.uleb128 0x5
 2899 0764 02        		.byte	0x2
 2900 0765 0000 0000 		.long	.LM214
 2901 0769 15        		.byte	0x15
 2902 076a 00        		.byte	0x0
 2903 076b 05        		.uleb128 0x5
 2904 076c 02        		.byte	0x2
 2905 076d 0000 0000 		.long	.LM215
 2906 0771 15        		.byte	0x15
 2907 0772 00        		.byte	0x0
 2908 0773 05        		.uleb128 0x5
 2909 0774 02        		.byte	0x2
 2910 0775 0000 0000 		.long	.LM216
 2911 0779 12        		.byte	0x12
 2912 077a 00        		.byte	0x0
 2913 077b 05        		.uleb128 0x5
 2914 077c 02        		.byte	0x2
 2915 077d 0000 0000 		.long	.LM217
 2916 0781 15        		.byte	0x15
 2917 0782 00        		.byte	0x0
 2918 0783 05        		.uleb128 0x5
 2919 0784 02        		.byte	0x2
 2920 0785 0000 0000 		.long	.LM218
 2921 0789 15        		.byte	0x15
 2922 078a 00        		.byte	0x0
 2923 078b 05        		.uleb128 0x5
 2924 078c 02        		.byte	0x2
 2925 078d 0000 0000 		.long	.LM219
 2926 0791 03        		.byte	0x3
 2927 0792 71        		.sleb128 -15
 2928 0793 01        		.byte	0x1
 2929 0794 00        		.byte	0x0
 2930 0795 05        		.uleb128 0x5
 2931 0796 02        		.byte	0x2
 2932 0797 0000 0000 		.long	.LM220
 2933 079b 03        		.byte	0x3
 2934 079c 8802      		.sleb128 264
 2935 079e 01        		.byte	0x1
 2936 079f 00        		.byte	0x0
 2937 07a0 05        		.uleb128 0x5
 2938 07a1 02        		.byte	0x2
 2939 07a2 0000 0000 		.long	.LM221
 2940 07a6 15        		.byte	0x15
 2941 07a7 00        		.byte	0x0
 2942 07a8 05        		.uleb128 0x5
 2943 07a9 02        		.byte	0x2
 2944 07aa 0000 0000 		.long	.LM222
 2945 07ae 15        		.byte	0x15
 2946 07af 00        		.byte	0x0
 2947 07b0 05        		.uleb128 0x5
GAS LISTING C:\Users\kees2125\AppData\Local\Temp/cccfvQxc.s 			page 53


 2948 07b1 02        		.byte	0x2
 2949 07b2 0000 0000 		.long	.LM223
 2950 07b6 15        		.byte	0x15
 2951 07b7 00        		.byte	0x0
 2952 07b8 05        		.uleb128 0x5
 2953 07b9 02        		.byte	0x2
 2954 07ba 0000 0000 		.long	.LM224
 2955 07be 15        		.byte	0x15
 2956 07bf 00        		.byte	0x0
 2957 07c0 05        		.uleb128 0x5
 2958 07c1 02        		.byte	0x2
 2959 07c2 0000 0000 		.long	.LM225
 2960 07c6 15        		.byte	0x15
 2961 07c7 00        		.byte	0x0
 2962 07c8 05        		.uleb128 0x5
 2963 07c9 02        		.byte	0x2
 2964 07ca 0000 0000 		.long	.LM226
 2965 07ce 15        		.byte	0x15
 2966 07cf 00        		.byte	0x0
 2967 07d0 05        		.uleb128 0x5
 2968 07d1 02        		.byte	0x2
 2969 07d2 0000 0000 		.long	.LM227
 2970 07d6 15        		.byte	0x15
 2971 07d7 00        		.byte	0x0
 2972 07d8 05        		.uleb128 0x5
 2973 07d9 02        		.byte	0x2
 2974 07da 0000 0000 		.long	.LM228
 2975 07de 15        		.byte	0x15
 2976 07df 00        		.byte	0x0
 2977 07e0 05        		.uleb128 0x5
 2978 07e1 02        		.byte	0x2
 2979 07e2 0000 0000 		.long	.LM229
 2980 07e6 1B        		.byte	0x1b
 2981 07e7 00        		.byte	0x0
 2982 07e8 05        		.uleb128 0x5
 2983 07e9 02        		.byte	0x2
 2984 07ea 0000 0000 		.long	.LM230
 2985 07ee 15        		.byte	0x15
 2986 07ef 00        		.byte	0x0
 2987 07f0 05        		.uleb128 0x5
 2988 07f1 02        		.byte	0x2
 2989 07f2 0000 0000 		.long	.LM231
 2990 07f6 15        		.byte	0x15
 2991 07f7 00        		.byte	0x0
 2992 07f8 05        		.uleb128 0x5
 2993 07f9 02        		.byte	0x2
 2994 07fa 0000 0000 		.long	.LM232
 2995 07fe 1B        		.byte	0x1b
 2996 07ff 00        		.byte	0x0
 2997 0800 05        		.uleb128 0x5
 2998 0801 02        		.byte	0x2
 2999 0802 0000 0000 		.long	.LM233
 3000 0806 15        		.byte	0x15
 3001 0807 00        		.byte	0x0
 3002 0808 05        		.uleb128 0x5
 3003 0809 02        		.byte	0x2
 3004 080a 0000 0000 		.long	.LM234
GAS LISTING C:\Users\kees2125\AppData\Local\Temp/cccfvQxc.s 			page 54


 3005 080e 0D        		.byte	0xd
 3006 080f 00        		.byte	0x0
 3007 0810 05        		.uleb128 0x5
 3008 0811 02        		.byte	0x2
 3009 0812 0000 0000 		.long	.LM235
 3010 0816 16        		.byte	0x16
 3011 0817 00        		.byte	0x0
 3012 0818 05        		.uleb128 0x5
 3013 0819 02        		.byte	0x2
 3014 081a 0000 0000 		.long	.LM236
 3015 081e 16        		.byte	0x16
 3016 081f 00        		.byte	0x0
 3017 0820 05        		.uleb128 0x5
 3018 0821 02        		.byte	0x2
 3019 0822 0000 0000 		.long	.LM237
 3020 0826 16        		.byte	0x16
 3021 0827 00        		.byte	0x0
 3022 0828 05        		.uleb128 0x5
 3023 0829 02        		.byte	0x2
 3024 082a 0000 0000 		.long	.LM238
 3025 082e 15        		.byte	0x15
 3026 082f 00        		.byte	0x0
 3027 0830 05        		.uleb128 0x5
 3028 0831 02        		.byte	0x2
 3029 0832 0000 0000 		.long	.LM239
 3030 0836 13        		.byte	0x13
 3031 0837 00        		.byte	0x0
 3032 0838 05        		.uleb128 0x5
 3033 0839 02        		.byte	0x2
 3034 083a 0000 0000 		.long	.LM240
 3035 083e 15        		.byte	0x15
 3036 083f 00        		.byte	0x0
 3037 0840 05        		.uleb128 0x5
 3038 0841 02        		.byte	0x2
 3039 0842 0000 0000 		.long	.LM241
 3040 0846 0D        		.byte	0xd
 3041 0847 00        		.byte	0x0
 3042 0848 05        		.uleb128 0x5
 3043 0849 02        		.byte	0x2
 3044 084a 0000 0000 		.long	.LM242
 3045 084e 1D        		.byte	0x1d
 3046 084f 00        		.byte	0x0
 3047 0850 05        		.uleb128 0x5
 3048 0851 02        		.byte	0x2
 3049 0852 0000 0000 		.long	.LM243
 3050 0856 15        		.byte	0x15
 3051 0857 00        		.byte	0x0
 3052 0858 05        		.uleb128 0x5
 3053 0859 02        		.byte	0x2
 3054 085a 0000 0000 		.long	.LM244
 3055 085e 1B        		.byte	0x1b
 3056 085f 00        		.byte	0x0
 3057 0860 05        		.uleb128 0x5
 3058 0861 02        		.byte	0x2
 3059 0862 0000 0000 		.long	.LM245
 3060 0866 15        		.byte	0x15
 3061 0867 00        		.byte	0x0
GAS LISTING C:\Users\kees2125\AppData\Local\Temp/cccfvQxc.s 			page 55


 3062 0868 05        		.uleb128 0x5
 3063 0869 02        		.byte	0x2
 3064 086a 0000 0000 		.long	.LM246
 3065 086e 0D        		.byte	0xd
 3066 086f 00        		.byte	0x0
 3067 0870 05        		.uleb128 0x5
 3068 0871 02        		.byte	0x2
 3069 0872 0000 0000 		.long	.LM247
 3070 0876 16        		.byte	0x16
 3071 0877 00        		.byte	0x0
 3072 0878 05        		.uleb128 0x5
 3073 0879 02        		.byte	0x2
 3074 087a 0000 0000 		.long	.LM248
 3075 087e 16        		.byte	0x16
 3076 087f 00        		.byte	0x0
 3077 0880 05        		.uleb128 0x5
 3078 0881 02        		.byte	0x2
 3079 0882 0000 0000 		.long	.LM249
 3080 0886 16        		.byte	0x16
 3081 0887 00        		.byte	0x0
 3082 0888 05        		.uleb128 0x5
 3083 0889 02        		.byte	0x2
 3084 088a 0000 0000 		.long	.LM250
 3085 088e 15        		.byte	0x15
 3086 088f 00        		.byte	0x0
 3087 0890 05        		.uleb128 0x5
 3088 0891 02        		.byte	0x2
 3089 0892 0000 0000 		.long	.LM251
 3090 0896 13        		.byte	0x13
 3091 0897 00        		.byte	0x0
 3092 0898 05        		.uleb128 0x5
 3093 0899 02        		.byte	0x2
 3094 089a 0000 0000 		.long	.LM252
 3095 089e 15        		.byte	0x15
 3096 089f 00        		.byte	0x0
 3097 08a0 05        		.uleb128 0x5
 3098 08a1 02        		.byte	0x2
 3099 08a2 0000 0000 		.long	.LM253
 3100 08a6 0D        		.byte	0xd
 3101 08a7 00        		.byte	0x0
 3102 08a8 05        		.uleb128 0x5
 3103 08a9 02        		.byte	0x2
 3104 08aa 0000 0000 		.long	.LM254
 3105 08ae 1D        		.byte	0x1d
 3106 08af 00        		.byte	0x0
 3107 08b0 05        		.uleb128 0x5
 3108 08b1 02        		.byte	0x2
 3109 08b2 0000 0000 		.long	.LM255
 3110 08b6 17        		.byte	0x17
 3111 08b7 00        		.byte	0x0
 3112 08b8 05        		.uleb128 0x5
 3113 08b9 02        		.byte	0x2
 3114 08ba 0000 0000 		.long	.LM256
 3115 08be 18        		.byte	0x18
 3116 08bf 00        		.byte	0x0
 3117 08c0 05        		.uleb128 0x5
 3118 08c1 02        		.byte	0x2
GAS LISTING C:\Users\kees2125\AppData\Local\Temp/cccfvQxc.s 			page 56


 3119 08c2 0000 0000 		.long	.LM257
 3120 08c6 17        		.byte	0x17
 3121 08c7 00        		.byte	0x0
 3122 08c8 05        		.uleb128 0x5
 3123 08c9 02        		.byte	0x2
 3124 08ca 0000 0000 		.long	.LM258
 3125 08ce 17        		.byte	0x17
 3126 08cf 00        		.byte	0x0
 3127 08d0 05        		.uleb128 0x5
 3128 08d1 02        		.byte	0x2
 3129 08d2 0000 0000 		.long	.LM259
 3130 08d6 17        		.byte	0x17
 3131 08d7 00        		.byte	0x0
 3132 08d8 05        		.uleb128 0x5
 3133 08d9 02        		.byte	0x2
 3134 08da 0000 0000 		.long	.LM260
 3135 08de 17        		.byte	0x17
 3136 08df 00        		.byte	0x0
 3137 08e0 05        		.uleb128 0x5
 3138 08e1 02        		.byte	0x2
 3139 08e2 0000 0000 		.long	.LM261
 3140 08e6 17        		.byte	0x17
 3141 08e7 00        		.byte	0x0
 3142 08e8 05        		.uleb128 0x5
 3143 08e9 02        		.byte	0x2
 3144 08ea 0000 0000 		.long	.LM262
 3145 08ee 1E        		.byte	0x1e
 3146 08ef 00        		.byte	0x0
 3147 08f0 05        		.uleb128 0x5
 3148 08f1 02        		.byte	0x2
 3149 08f2 0000 0000 		.long	.LM263
 3150 08f6 16        		.byte	0x16
 3151 08f7 00        		.byte	0x0
 3152 08f8 05        		.uleb128 0x5
 3153 08f9 02        		.byte	0x2
 3154 08fa 0000 0000 		.long	.Letext0
 3155 08fe 00        		.byte	0x0
 3156 08ff 01        		.uleb128 0x1
 3157 0900 01        		.byte	0x1
 3158               	.LELT0:
 3159 0901 1900 0000 		.section	.debug_loc,"",@progbits
 3159      0200 1300 
 3159      0000 0101 
 3159      FB0E 0D00 
 3159      0101 0101 
 3160               	.Ldebug_loc0:
 3161               	.LLST4:
 3162 0000 2400 0000 		.long	.LVL0-.Ltext0
 3163 0004 2A00 0000 		.long	.LVL1-.Ltext0
 3164 0008 0100      		.word	0x1
 3165 000a 68        		.byte	0x68
 3166 000b 0000 0000 		.long	0x0
 3167 000f 0000 0000 		.long	0x0
 3168               	.LLST6:
 3169 0013 3800 0000 		.long	.LVL2-.Ltext0
 3170 0017 4400 0000 		.long	.LVL4-.Ltext0
 3171 001b 0600      		.word	0x6
GAS LISTING C:\Users\kees2125\AppData\Local\Temp/cccfvQxc.s 			page 57


 3172 001d 68        		.byte	0x68
 3173 001e 93        		.byte	0x93
 3174 001f 01        		.uleb128 0x1
 3175 0020 69        		.byte	0x69
 3176 0021 93        		.byte	0x93
 3177 0022 01        		.uleb128 0x1
 3178 0023 4400 0000 		.long	.LVL4-.Ltext0
 3179 0027 5600 0000 		.long	.LFE10-.Ltext0
 3180 002b 0600      		.word	0x6
 3181 002d 64        		.byte	0x64
 3182 002e 93        		.byte	0x93
 3183 002f 01        		.uleb128 0x1
 3184 0030 65        		.byte	0x65
 3185 0031 93        		.byte	0x93
 3186 0032 01        		.uleb128 0x1
 3187 0033 0000 0000 		.long	0x0
 3188 0037 0000 0000 		.long	0x0
 3189               	.LLST8:
 3190 003b 5600 0000 		.long	.LVL6-.Ltext0
 3191 003f 6C00 0000 		.long	.LVL7-.Ltext0
 3192 0043 0600      		.word	0x6
 3193 0045 68        		.byte	0x68
 3194 0046 93        		.byte	0x93
 3195 0047 01        		.uleb128 0x1
 3196 0048 69        		.byte	0x69
 3197 0049 93        		.byte	0x93
 3198 004a 01        		.uleb128 0x1
 3199 004b B200 0000 		.long	.LVL8-.Ltext0
 3200 004f B400 0000 		.long	.LVL9-.Ltext0
 3201 0053 0600      		.word	0x6
 3202 0055 68        		.byte	0x68
 3203 0056 93        		.byte	0x93
 3204 0057 01        		.uleb128 0x1
 3205 0058 69        		.byte	0x69
 3206 0059 93        		.byte	0x93
 3207 005a 01        		.uleb128 0x1
 3208 005b FC00 0000 		.long	.LVL10-.Ltext0
 3209 005f FE00 0000 		.long	.LVL11-.Ltext0
 3210 0063 0600      		.word	0x6
 3211 0065 68        		.byte	0x68
 3212 0066 93        		.byte	0x93
 3213 0067 01        		.uleb128 0x1
 3214 0068 69        		.byte	0x69
 3215 0069 93        		.byte	0x93
 3216 006a 01        		.uleb128 0x1
 3217 006b 4601 0000 		.long	.LVL12-.Ltext0
 3218 006f 4801 0000 		.long	.LVL13-.Ltext0
 3219 0073 0600      		.word	0x6
 3220 0075 68        		.byte	0x68
 3221 0076 93        		.byte	0x93
 3222 0077 01        		.uleb128 0x1
 3223 0078 69        		.byte	0x69
 3224 0079 93        		.byte	0x93
 3225 007a 01        		.uleb128 0x1
 3226 007b 9001 0000 		.long	.LVL14-.Ltext0
 3227 007f 9201 0000 		.long	.LVL15-.Ltext0
 3228 0083 0600      		.word	0x6
GAS LISTING C:\Users\kees2125\AppData\Local\Temp/cccfvQxc.s 			page 58


 3229 0085 68        		.byte	0x68
 3230 0086 93        		.byte	0x93
 3231 0087 01        		.uleb128 0x1
 3232 0088 69        		.byte	0x69
 3233 0089 93        		.byte	0x93
 3234 008a 01        		.uleb128 0x1
 3235 008b DA01 0000 		.long	.LVL16-.Ltext0
 3236 008f DC01 0000 		.long	.LVL17-.Ltext0
 3237 0093 0600      		.word	0x6
 3238 0095 68        		.byte	0x68
 3239 0096 93        		.byte	0x93
 3240 0097 01        		.uleb128 0x1
 3241 0098 69        		.byte	0x69
 3242 0099 93        		.byte	0x93
 3243 009a 01        		.uleb128 0x1
 3244 009b 2402 0000 		.long	.LVL18-.Ltext0
 3245 009f 2602 0000 		.long	.LVL19-.Ltext0
 3246 00a3 0600      		.word	0x6
 3247 00a5 68        		.byte	0x68
 3248 00a6 93        		.byte	0x93
 3249 00a7 01        		.uleb128 0x1
 3250 00a8 69        		.byte	0x69
 3251 00a9 93        		.byte	0x93
 3252 00aa 01        		.uleb128 0x1
 3253 00ab 7402 0000 		.long	.LVL20-.Ltext0
 3254 00af 7602 0000 		.long	.LVL21-.Ltext0
 3255 00b3 0600      		.word	0x6
 3256 00b5 68        		.byte	0x68
 3257 00b6 93        		.byte	0x93
 3258 00b7 01        		.uleb128 0x1
 3259 00b8 69        		.byte	0x69
 3260 00b9 93        		.byte	0x93
 3261 00ba 01        		.uleb128 0x1
 3262 00bb C202 0000 		.long	.LVL22-.Ltext0
 3263 00bf C402 0000 		.long	.LFE11-.Ltext0
 3264 00c3 0600      		.word	0x6
 3265 00c5 68        		.byte	0x68
 3266 00c6 93        		.byte	0x93
 3267 00c7 01        		.uleb128 0x1
 3268 00c8 69        		.byte	0x69
 3269 00c9 93        		.byte	0x93
 3270 00ca 01        		.uleb128 0x1
 3271 00cb 0000 0000 		.long	0x0
 3272 00cf 0000 0000 		.long	0x0
 3273               	.LLST13:
 3274 00d3 8A03 0000 		.long	.LVL23-.Ltext0
 3275 00d7 A203 0000 		.long	.LVL24-.Ltext0
 3276 00db 0600      		.word	0x6
 3277 00dd 68        		.byte	0x68
 3278 00de 93        		.byte	0x93
 3279 00df 01        		.uleb128 0x1
 3280 00e0 69        		.byte	0x69
 3281 00e1 93        		.byte	0x93
 3282 00e2 01        		.uleb128 0x1
 3283 00e3 C403 0000 		.long	.LVL25-.Ltext0
 3284 00e7 CC03 0000 		.long	.LVL26-.Ltext0
 3285 00eb 0600      		.word	0x6
GAS LISTING C:\Users\kees2125\AppData\Local\Temp/cccfvQxc.s 			page 59


 3286 00ed 68        		.byte	0x68
 3287 00ee 93        		.byte	0x93
 3288 00ef 01        		.uleb128 0x1
 3289 00f0 69        		.byte	0x69
 3290 00f1 93        		.byte	0x93
 3291 00f2 01        		.uleb128 0x1
 3292 00f3 EE03 0000 		.long	.LVL27-.Ltext0
 3293 00f7 F603 0000 		.long	.LVL28-.Ltext0
 3294 00fb 0600      		.word	0x6
 3295 00fd 68        		.byte	0x68
 3296 00fe 93        		.byte	0x93
 3297 00ff 01        		.uleb128 0x1
 3298 0100 69        		.byte	0x69
 3299 0101 93        		.byte	0x93
 3300 0102 01        		.uleb128 0x1
 3301 0103 1804 0000 		.long	.LVL29-.Ltext0
 3302 0107 2004 0000 		.long	.LVL30-.Ltext0
 3303 010b 0600      		.word	0x6
 3304 010d 68        		.byte	0x68
 3305 010e 93        		.byte	0x93
 3306 010f 01        		.uleb128 0x1
 3307 0110 69        		.byte	0x69
 3308 0111 93        		.byte	0x93
 3309 0112 01        		.uleb128 0x1
 3310 0113 4204 0000 		.long	.LVL31-.Ltext0
 3311 0117 4A04 0000 		.long	.LVL32-.Ltext0
 3312 011b 0600      		.word	0x6
 3313 011d 68        		.byte	0x68
 3314 011e 93        		.byte	0x93
 3315 011f 01        		.uleb128 0x1
 3316 0120 69        		.byte	0x69
 3317 0121 93        		.byte	0x93
 3318 0122 01        		.uleb128 0x1
 3319 0123 6004 0000 		.long	.LVL33-.Ltext0
 3320 0127 6E04 0000 		.long	.LVL34-.Ltext0
 3321 012b 0600      		.word	0x6
 3322 012d 68        		.byte	0x68
 3323 012e 93        		.byte	0x93
 3324 012f 01        		.uleb128 0x1
 3325 0130 69        		.byte	0x69
 3326 0131 93        		.byte	0x93
 3327 0132 01        		.uleb128 0x1
 3328 0133 9004 0000 		.long	.LVL35-.Ltext0
 3329 0137 9804 0000 		.long	.LVL36-.Ltext0
 3330 013b 0600      		.word	0x6
 3331 013d 68        		.byte	0x68
 3332 013e 93        		.byte	0x93
 3333 013f 01        		.uleb128 0x1
 3334 0140 69        		.byte	0x69
 3335 0141 93        		.byte	0x93
 3336 0142 01        		.uleb128 0x1
 3337 0143 BA04 0000 		.long	.LVL37-.Ltext0
 3338 0147 C204 0000 		.long	.LVL38-.Ltext0
 3339 014b 0600      		.word	0x6
 3340 014d 68        		.byte	0x68
 3341 014e 93        		.byte	0x93
 3342 014f 01        		.uleb128 0x1
GAS LISTING C:\Users\kees2125\AppData\Local\Temp/cccfvQxc.s 			page 60


 3343 0150 69        		.byte	0x69
 3344 0151 93        		.byte	0x93
 3345 0152 01        		.uleb128 0x1
 3346 0153 EC04 0000 		.long	.LVL39-.Ltext0
 3347 0157 F404 0000 		.long	.LVL40-.Ltext0
 3348 015b 0600      		.word	0x6
 3349 015d 68        		.byte	0x68
 3350 015e 93        		.byte	0x93
 3351 015f 01        		.uleb128 0x1
 3352 0160 69        		.byte	0x69
 3353 0161 93        		.byte	0x93
 3354 0162 01        		.uleb128 0x1
 3355 0163 1C05 0000 		.long	.LVL41-.Ltext0
 3356 0167 1E05 0000 		.long	.LFE15-.Ltext0
 3357 016b 0600      		.word	0x6
 3358 016d 68        		.byte	0x68
 3359 016e 93        		.byte	0x93
 3360 016f 01        		.uleb128 0x1
 3361 0170 69        		.byte	0x69
 3362 0171 93        		.byte	0x93
 3363 0172 01        		.uleb128 0x1
 3364 0173 0000 0000 		.long	0x0
 3365 0177 0000 0000 		.long	0x0
 3366               	.LLST15:
 3367 017b 2605 0000 		.long	.LVL42-.Ltext0
 3368 017f 3405 0000 		.long	.LVL43-.Ltext0
 3369 0183 0600      		.word	0x6
 3370 0185 68        		.byte	0x68
 3371 0186 93        		.byte	0x93
 3372 0187 01        		.uleb128 0x1
 3373 0188 69        		.byte	0x69
 3374 0189 93        		.byte	0x93
 3375 018a 01        		.uleb128 0x1
 3376 018b 3405 0000 		.long	.LVL43-.Ltext0
 3377 018f 5805 0000 		.long	.LVL44-.Ltext0
 3378 0193 0600      		.word	0x6
 3379 0195 6C        		.byte	0x6c
 3380 0196 93        		.byte	0x93
 3381 0197 01        		.uleb128 0x1
 3382 0198 6D        		.byte	0x6d
 3383 0199 93        		.byte	0x93
 3384 019a 01        		.uleb128 0x1
 3385 019b 5805 0000 		.long	.LVL44-.Ltext0
 3386 019f 5C05 0000 		.long	.LVL45-.Ltext0
 3387 01a3 0600      		.word	0x6
 3388 01a5 68        		.byte	0x68
 3389 01a6 93        		.byte	0x93
 3390 01a7 01        		.uleb128 0x1
 3391 01a8 69        		.byte	0x69
 3392 01a9 93        		.byte	0x93
 3393 01aa 01        		.uleb128 0x1
 3394 01ab 5C05 0000 		.long	.LVL45-.Ltext0
 3395 01af 8805 0000 		.long	.LFE16-.Ltext0
 3396 01b3 0600      		.word	0x6
 3397 01b5 6C        		.byte	0x6c
 3398 01b6 93        		.byte	0x93
 3399 01b7 01        		.uleb128 0x1
GAS LISTING C:\Users\kees2125\AppData\Local\Temp/cccfvQxc.s 			page 61


 3400 01b8 6D        		.byte	0x6d
 3401 01b9 93        		.byte	0x93
 3402 01ba 01        		.uleb128 0x1
 3403 01bb 0000 0000 		.long	0x0
 3404 01bf 0000 0000 		.long	0x0
 3405               	.LLST16:
 3406 01c3 2605 0000 		.long	.LVL42-.Ltext0
 3407 01c7 3405 0000 		.long	.LVL43-.Ltext0
 3408 01cb 0600      		.word	0x6
 3409 01cd 66        		.byte	0x66
 3410 01ce 93        		.byte	0x93
 3411 01cf 01        		.uleb128 0x1
 3412 01d0 67        		.byte	0x67
 3413 01d1 93        		.byte	0x93
 3414 01d2 01        		.uleb128 0x1
 3415 01d3 3405 0000 		.long	.LVL43-.Ltext0
 3416 01d7 5805 0000 		.long	.LVL44-.Ltext0
 3417 01db 0600      		.word	0x6
 3418 01dd 60        		.byte	0x60
 3419 01de 93        		.byte	0x93
 3420 01df 01        		.uleb128 0x1
 3421 01e0 61        		.byte	0x61
 3422 01e1 93        		.byte	0x93
 3423 01e2 01        		.uleb128 0x1
 3424 01e3 5805 0000 		.long	.LVL44-.Ltext0
 3425 01e7 5C05 0000 		.long	.LVL45-.Ltext0
 3426 01eb 0600      		.word	0x6
 3427 01ed 66        		.byte	0x66
 3428 01ee 93        		.byte	0x93
 3429 01ef 01        		.uleb128 0x1
 3430 01f0 67        		.byte	0x67
 3431 01f1 93        		.byte	0x93
 3432 01f2 01        		.uleb128 0x1
 3433 01f3 5C05 0000 		.long	.LVL45-.Ltext0
 3434 01f7 8805 0000 		.long	.LFE16-.Ltext0
 3435 01fb 0600      		.word	0x6
 3436 01fd 60        		.byte	0x60
 3437 01fe 93        		.byte	0x93
 3438 01ff 01        		.uleb128 0x1
 3439 0200 61        		.byte	0x61
 3440 0201 93        		.byte	0x93
 3441 0202 01        		.uleb128 0x1
 3442 0203 0000 0000 		.long	0x0
 3443 0207 0000 0000 		.long	0x0
 3444               	.LLST18:
 3445 020b A207 0000 		.long	.LVL48-.Ltext0
 3446 020f 0E08 0000 		.long	.LVL50-.Ltext0
 3447 0213 0600      		.word	0x6
 3448 0215 68        		.byte	0x68
 3449 0216 93        		.byte	0x93
 3450 0217 01        		.uleb128 0x1
 3451 0218 69        		.byte	0x69
 3452 0219 93        		.byte	0x93
 3453 021a 01        		.uleb128 0x1
 3454 021b 1008 0000 		.long	.LVL51-.Ltext0
 3455 021f 1208 0000 		.long	.LFE17-.Ltext0
 3456 0223 0600      		.word	0x6
GAS LISTING C:\Users\kees2125\AppData\Local\Temp/cccfvQxc.s 			page 62


 3457 0225 68        		.byte	0x68
 3458 0226 93        		.byte	0x93
 3459 0227 01        		.uleb128 0x1
 3460 0228 69        		.byte	0x69
 3461 0229 93        		.byte	0x93
 3462 022a 01        		.uleb128 0x1
 3463 022b 0000 0000 		.long	0x0
 3464 022f 0000 0000 		.long	0x0
 3465               	.LLST19:
 3466 0233 1207 0000 		.long	.LVL46-.Ltext0
 3467 0237 6407 0000 		.long	.LVL47-.Ltext0
 3468 023b 0600      		.word	0x6
 3469 023d 6C        		.byte	0x6c
 3470 023e 93        		.byte	0x93
 3471 023f 01        		.uleb128 0x1
 3472 0240 6D        		.byte	0x6d
 3473 0241 93        		.byte	0x93
 3474 0242 01        		.uleb128 0x1
 3475 0243 0000 0000 		.long	0x0
 3476 0247 0000 0000 		.long	0x0
 3477               	.LLST20:
 3478 024b 6407 0000 		.long	.LVL47-.Ltext0
 3479 024f A607 0000 		.long	.LVL49-.Ltext0
 3480 0253 0600      		.word	0x6
 3481 0255 6C        		.byte	0x6c
 3482 0256 93        		.byte	0x93
 3483 0257 01        		.uleb128 0x1
 3484 0258 6D        		.byte	0x6d
 3485 0259 93        		.byte	0x93
 3486 025a 01        		.uleb128 0x1
 3487 025b 0000 0000 		.long	0x0
 3488 025f 0000 0000 		.long	0x0
 3489               		.section	.debug_info
 3490 0000 5C07 0000 		.long	0x75c
 3491 0004 0200      		.word	0x2
 3492 0006 0000 0000 		.long	.Ldebug_abbrev0
 3493 000a 04        		.byte	0x4
 3494 000b 01        		.uleb128 0x1
 3495 000c 0000 0000 		.long	.Ldebug_line0
 3496 0010 0000 0000 		.long	.Letext0
 3497 0014 0000 0000 		.long	.Ltext0
 3498 0018 0000 0000 		.long	.LASF31
 3499 001c 01        		.byte	0x1
 3500 001d 0000 0000 		.long	.LASF32
 3501 0021 0000 0000 		.long	.LASF33
 3502 0025 02        		.uleb128 0x2
 3503 0026 0000 0000 		.long	.LASF0
 3504 002a 01        		.byte	0x1
 3505 002b 06        		.byte	0x6
 3506 002c 02        		.uleb128 0x2
 3507 002d 0000 0000 		.long	.LASF1
 3508 0031 01        		.byte	0x1
 3509 0032 08        		.byte	0x8
 3510 0033 03        		.uleb128 0x3
 3511 0034 696E 7400 		.string	"int"
 3512 0038 02        		.byte	0x2
 3513 0039 05        		.byte	0x5
GAS LISTING C:\Users\kees2125\AppData\Local\Temp/cccfvQxc.s 			page 63


 3514 003a 04        		.uleb128 0x4
 3515 003b 0000 0000 		.long	.LASF34
 3516 003f 01        		.byte	0x1
 3517 0040 7C        		.byte	0x7c
 3518 0041 4500 0000 		.long	0x45
 3519 0045 02        		.uleb128 0x2
 3520 0046 0000 0000 		.long	.LASF2
 3521 004a 02        		.byte	0x2
 3522 004b 07        		.byte	0x7
 3523 004c 02        		.uleb128 0x2
 3524 004d 0000 0000 		.long	.LASF3
 3525 0051 04        		.byte	0x4
 3526 0052 05        		.byte	0x5
 3527 0053 02        		.uleb128 0x2
 3528 0054 0000 0000 		.long	.LASF4
 3529 0058 04        		.byte	0x4
 3530 0059 07        		.byte	0x7
 3531 005a 02        		.uleb128 0x2
 3532 005b 0000 0000 		.long	.LASF5
 3533 005f 08        		.byte	0x8
 3534 0060 05        		.byte	0x5
 3535 0061 02        		.uleb128 0x2
 3536 0062 0000 0000 		.long	.LASF6
 3537 0066 08        		.byte	0x8
 3538 0067 07        		.byte	0x7
 3539 0068 05        		.uleb128 0x5
 3540 0069 8100 0000 		.long	0x81
 3541 006d 0000 0000 		.long	.LASF7
 3542 0071 03        		.byte	0x3
 3543 0072 68        		.byte	0x68
 3544 0073 01        		.byte	0x1
 3545 0074 03        		.byte	0x3
 3546 0075 06        		.uleb128 0x6
 3547 0076 0000 0000 		.long	.LASF9
 3548 007a 03        		.byte	0x3
 3549 007b 67        		.byte	0x67
 3550 007c 3A00 0000 		.long	0x3a
 3551 0080 00        		.byte	0x0
 3552 0081 05        		.uleb128 0x5
 3553 0082 B100 0000 		.long	0xb1
 3554 0086 0000 0000 		.long	.LASF8
 3555 008a 04        		.byte	0x4
 3556 008b 81        		.byte	0x81
 3557 008c 01        		.byte	0x1
 3558 008d 03        		.byte	0x3
 3559 008e 06        		.uleb128 0x6
 3560 008f 0000 0000 		.long	.LASF10
 3561 0093 04        		.byte	0x4
 3562 0094 80        		.byte	0x80
 3563 0095 B100 0000 		.long	0xb1
 3564 0099 07        		.uleb128 0x7
 3565 009a 0000 0000 		.long	.LASF11
 3566 009e 04        		.byte	0x4
 3567 009f 82        		.byte	0x82
 3568 00a0 3A00 0000 		.long	0x3a
 3569 00a4 07        		.uleb128 0x7
 3570 00a5 0000 0000 		.long	.LASF12
GAS LISTING C:\Users\kees2125\AppData\Local\Temp/cccfvQxc.s 			page 64


 3571 00a9 04        		.byte	0x4
 3572 00aa 83        		.byte	0x83
 3573 00ab B100 0000 		.long	0xb1
 3574 00af 08        		.uleb128 0x8
 3575 00b0 00        		.byte	0x0
 3576 00b1 02        		.uleb128 0x2
 3577 00b2 0000 0000 		.long	.LASF13
 3578 00b6 04        		.byte	0x4
 3579 00b7 04        		.byte	0x4
 3580 00b8 09        		.uleb128 0x9
 3581 00b9 01        		.byte	0x1
 3582 00ba 0000 0000 		.long	.LASF15
 3583 00be 05        		.byte	0x5
 3584 00bf 2D        		.byte	0x2d
 3585 00c0 01        		.byte	0x1
 3586 00c1 01        		.byte	0x1
 3587 00c2 0A        		.uleb128 0xa
 3588 00c3 DC00 0000 		.long	0xdc
 3589 00c7 01        		.byte	0x1
 3590 00c8 0000 0000 		.long	.LASF18
 3591 00cc 05        		.byte	0x5
 3592 00cd 48        		.byte	0x48
 3593 00ce 01        		.byte	0x1
 3594 00cf 01        		.byte	0x1
 3595 00d0 06        		.uleb128 0x6
 3596 00d1 0000 0000 		.long	.LASF14
 3597 00d5 05        		.byte	0x5
 3598 00d6 40        		.byte	0x40
 3599 00d7 2C00 0000 		.long	0x2c
 3600 00db 00        		.byte	0x0
 3601 00dc 09        		.uleb128 0x9
 3602 00dd 01        		.byte	0x1
 3603 00de 0000 0000 		.long	.LASF16
 3604 00e2 05        		.byte	0x5
 3605 00e3 3B        		.byte	0x3b
 3606 00e4 01        		.byte	0x1
 3607 00e5 01        		.byte	0x1
 3608 00e6 09        		.uleb128 0x9
 3609 00e7 01        		.byte	0x1
 3610 00e8 0000 0000 		.long	.LASF17
 3611 00ec 05        		.byte	0x5
 3612 00ed 1F        		.byte	0x1f
 3613 00ee 01        		.byte	0x1
 3614 00ef 01        		.byte	0x1
 3615 00f0 0B        		.uleb128 0xb
 3616 00f1 E600 0000 		.long	0xe6
 3617 00f5 0000 0000 		.long	.LFB6
 3618 00f9 0000 0000 		.long	.LFE6
 3619 00fd 02        		.byte	0x2
 3620 00fe 90        		.byte	0x90
 3621 00ff 20        		.uleb128 0x20
 3622 0100 0B        		.uleb128 0xb
 3623 0101 B800 0000 		.long	0xb8
 3624 0105 0000 0000 		.long	.LFB7
 3625 0109 0000 0000 		.long	.LFE7
 3626 010d 02        		.byte	0x2
 3627 010e 90        		.byte	0x90
GAS LISTING C:\Users\kees2125\AppData\Local\Temp/cccfvQxc.s 			page 65


 3628 010f 20        		.uleb128 0x20
 3629 0110 0B        		.uleb128 0xb
 3630 0111 DC00 0000 		.long	0xdc
 3631 0115 0000 0000 		.long	.LFB8
 3632 0119 0000 0000 		.long	.LFE8
 3633 011d 02        		.byte	0x2
 3634 011e 90        		.byte	0x90
 3635 011f 20        		.uleb128 0x20
 3636 0120 0C        		.uleb128 0xc
 3637 0121 3E01 0000 		.long	0x13e
 3638 0125 C200 0000 		.long	0xc2
 3639 0129 0000 0000 		.long	.LFB9
 3640 012d 0000 0000 		.long	.LFE9
 3641 0131 02        		.byte	0x2
 3642 0132 90        		.byte	0x90
 3643 0133 20        		.uleb128 0x20
 3644 0134 0D        		.uleb128 0xd
 3645 0135 D000 0000 		.long	0xd0
 3646 0139 0000 0000 		.long	.LLST4
 3647 013d 00        		.byte	0x0
 3648 013e 0E        		.uleb128 0xe
 3649 013f C401 0000 		.long	0x1c4
 3650 0143 01        		.byte	0x1
 3651 0144 0000 0000 		.long	.LASF19
 3652 0148 05        		.byte	0x5
 3653 0149 59        		.byte	0x59
 3654 014a 01        		.byte	0x1
 3655 014b 0000 0000 		.long	.LFB10
 3656 014f 0000 0000 		.long	.LFE10
 3657 0153 02        		.byte	0x2
 3658 0154 90        		.byte	0x90
 3659 0155 20        		.uleb128 0x20
 3660 0156 0F        		.uleb128 0xf
 3661 0157 6D73 00   		.string	"ms"
 3662 015a 05        		.byte	0x5
 3663 015b 4F        		.byte	0x4f
 3664 015c 3300 0000 		.long	0x33
 3665 0160 0000 0000 		.long	.LLST6
 3666 0164 10        		.uleb128 0x10
 3667 0165 0000 0000 		.long	.LBB89
 3668 0169 0000 0000 		.long	.LBE89
 3669 016d 11        		.uleb128 0x11
 3670 016e 6900      		.string	"i"
 3671 0170 05        		.byte	0x5
 3672 0171 5A        		.byte	0x5a
 3673 0172 3300 0000 		.long	0x33
 3674 0176 06        		.byte	0x6
 3675 0177 62        		.byte	0x62
 3676 0178 93        		.byte	0x93
 3677 0179 01        		.uleb128 0x1
 3678 017a 63        		.byte	0x63
 3679 017b 93        		.byte	0x93
 3680 017c 01        		.uleb128 0x1
 3681 017d 12        		.uleb128 0x12
 3682 017e 8100 0000 		.long	0x81
 3683 0182 0000 0000 		.long	.LBB90
 3684 0186 0000 0000 		.long	.LBE90
GAS LISTING C:\Users\kees2125\AppData\Local\Temp/cccfvQxc.s 			page 66


 3685 018a 05        		.byte	0x5
 3686 018b 5C        		.byte	0x5c
 3687 018c 13        		.uleb128 0x13
 3688 018d 8E00 0000 		.long	0x8e
 3689 0191 10        		.uleb128 0x10
 3690 0192 0000 0000 		.long	.LBB91
 3691 0196 0000 0000 		.long	.LBE91
 3692 019a 14        		.uleb128 0x14
 3693 019b 9900 0000 		.long	0x99
 3694 019f 14        		.uleb128 0x14
 3695 01a0 A400 0000 		.long	0xa4
 3696 01a4 12        		.uleb128 0x12
 3697 01a5 6800 0000 		.long	0x68
 3698 01a9 0000 0000 		.long	.LBB92
 3699 01ad 0000 0000 		.long	.LBE92
 3700 01b1 04        		.byte	0x4
 3701 01b2 8A        		.byte	0x8a
 3702 01b3 15        		.uleb128 0x15
 3703 01b4 7500 0000 		.long	0x75
 3704 01b8 06        		.byte	0x6
 3705 01b9 68        		.byte	0x68
 3706 01ba 93        		.byte	0x93
 3707 01bb 01        		.uleb128 0x1
 3708 01bc 69        		.byte	0x69
 3709 01bd 93        		.byte	0x93
 3710 01be 01        		.uleb128 0x1
 3711 01bf 00        		.byte	0x0
 3712 01c0 00        		.byte	0x0
 3713 01c1 00        		.byte	0x0
 3714 01c2 00        		.byte	0x0
 3715 01c3 00        		.byte	0x0
 3716 01c4 0E        		.uleb128 0xe
 3717 01c5 EC04 0000 		.long	0x4ec
 3718 01c9 01        		.byte	0x1
 3719 01ca 0000 0000 		.long	.LASF20
 3720 01ce 05        		.byte	0x5
 3721 01cf 60        		.byte	0x60
 3722 01d0 01        		.byte	0x1
 3723 01d1 0000 0000 		.long	.LFB11
 3724 01d5 0000 0000 		.long	.LFE11
 3725 01d9 02        		.byte	0x2
 3726 01da 90        		.byte	0x90
 3727 01db 20        		.uleb128 0x20
 3728 01dc 0F        		.uleb128 0xf
 3729 01dd 726F 7700 		.string	"row"
 3730 01e1 05        		.byte	0x5
 3731 01e2 5F        		.byte	0x5f
 3732 01e3 3300 0000 		.long	0x33
 3733 01e7 0000 0000 		.long	.LLST8
 3734 01eb 16        		.uleb128 0x16
 3735 01ec 0000 0000 		.long	.LASF14
 3736 01f0 05        		.byte	0x5
 3737 01f1 5F        		.byte	0x5f
 3738 01f2 3300 0000 		.long	0x33
 3739 01f6 06        		.byte	0x6
 3740 01f7 66        		.byte	0x66
 3741 01f8 93        		.byte	0x93
GAS LISTING C:\Users\kees2125\AppData\Local\Temp/cccfvQxc.s 			page 67


 3742 01f9 01        		.uleb128 0x1
 3743 01fa 67        		.byte	0x67
 3744 01fb 93        		.byte	0x93
 3745 01fc 01        		.uleb128 0x1
 3746 01fd 17        		.uleb128 0x17
 3747 01fe B800 0000 		.long	0xb8
 3748 0202 0000 0000 		.long	.LBB94
 3749 0206 0000 0000 		.long	.LBE94
 3750 020a 05        		.byte	0x5
 3751 020b 64        		.byte	0x64
 3752 020c 18        		.uleb128 0x18
 3753 020d 2502 0000 		.long	0x225
 3754 0211 C200 0000 		.long	0xc2
 3755 0215 0000 0000 		.long	.LBB96
 3756 0219 0000 0000 		.long	.LBE96
 3757 021d 05        		.byte	0x5
 3758 021e 65        		.byte	0x65
 3759 021f 13        		.uleb128 0x13
 3760 0220 3401 0000 		.long	0x134
 3761 0224 00        		.byte	0x0
 3762 0225 18        		.uleb128 0x18
 3763 0226 3E02 0000 		.long	0x23e
 3764 022a C200 0000 		.long	0xc2
 3765 022e 0000 0000 		.long	.LBB98
 3766 0232 0000 0000 		.long	.LBE98
 3767 0236 05        		.byte	0x5
 3768 0237 66        		.byte	0x66
 3769 0238 13        		.uleb128 0x13
 3770 0239 3401 0000 		.long	0x134
 3771 023d 00        		.byte	0x0
 3772 023e 18        		.uleb128 0x18
 3773 023f 5702 0000 		.long	0x257
 3774 0243 C200 0000 		.long	0xc2
 3775 0247 0000 0000 		.long	.LBB100
 3776 024b 0000 0000 		.long	.LBE100
 3777 024f 05        		.byte	0x5
 3778 0250 67        		.byte	0x67
 3779 0251 13        		.uleb128 0x13
 3780 0252 3401 0000 		.long	0x134
 3781 0256 00        		.byte	0x0
 3782 0257 17        		.uleb128 0x17
 3783 0258 B800 0000 		.long	0xb8
 3784 025c 0000 0000 		.long	.LBB102
 3785 0260 0000 0000 		.long	.LBE102
 3786 0264 05        		.byte	0x5
 3787 0265 6B        		.byte	0x6b
 3788 0266 18        		.uleb128 0x18
 3789 0267 7F02 0000 		.long	0x27f
 3790 026b C200 0000 		.long	0xc2
 3791 026f 0000 0000 		.long	.LBB104
 3792 0273 0000 0000 		.long	.LBE104
 3793 0277 05        		.byte	0x5
 3794 0278 6C        		.byte	0x6c
 3795 0279 13        		.uleb128 0x13
 3796 027a 3401 0000 		.long	0x134
 3797 027e 00        		.byte	0x0
 3798 027f 18        		.uleb128 0x18
GAS LISTING C:\Users\kees2125\AppData\Local\Temp/cccfvQxc.s 			page 68


 3799 0280 9802 0000 		.long	0x298
 3800 0284 C200 0000 		.long	0xc2
 3801 0288 0000 0000 		.long	.LBB106
 3802 028c 0000 0000 		.long	.LBE106
 3803 0290 05        		.byte	0x5
 3804 0291 6D        		.byte	0x6d
 3805 0292 13        		.uleb128 0x13
 3806 0293 3401 0000 		.long	0x134
 3807 0297 00        		.byte	0x0
 3808 0298 18        		.uleb128 0x18
 3809 0299 B102 0000 		.long	0x2b1
 3810 029d C200 0000 		.long	0xc2
 3811 02a1 0000 0000 		.long	.LBB108
 3812 02a5 0000 0000 		.long	.LBE108
 3813 02a9 05        		.byte	0x5
 3814 02aa 6E        		.byte	0x6e
 3815 02ab 13        		.uleb128 0x13
 3816 02ac 3401 0000 		.long	0x134
 3817 02b0 00        		.byte	0x0
 3818 02b1 17        		.uleb128 0x17
 3819 02b2 B800 0000 		.long	0xb8
 3820 02b6 0000 0000 		.long	.LBB110
 3821 02ba 0000 0000 		.long	.LBE110
 3822 02be 05        		.byte	0x5
 3823 02bf 72        		.byte	0x72
 3824 02c0 18        		.uleb128 0x18
 3825 02c1 D902 0000 		.long	0x2d9
 3826 02c5 C200 0000 		.long	0xc2
 3827 02c9 0000 0000 		.long	.LBB112
 3828 02cd 0000 0000 		.long	.LBE112
 3829 02d1 05        		.byte	0x5
 3830 02d2 73        		.byte	0x73
 3831 02d3 13        		.uleb128 0x13
 3832 02d4 3401 0000 		.long	0x134
 3833 02d8 00        		.byte	0x0
 3834 02d9 18        		.uleb128 0x18
 3835 02da F202 0000 		.long	0x2f2
 3836 02de C200 0000 		.long	0xc2
 3837 02e2 0000 0000 		.long	.LBB114
 3838 02e6 0000 0000 		.long	.LBE114
 3839 02ea 05        		.byte	0x5
 3840 02eb 74        		.byte	0x74
 3841 02ec 13        		.uleb128 0x13
 3842 02ed 3401 0000 		.long	0x134
 3843 02f1 00        		.byte	0x0
 3844 02f2 18        		.uleb128 0x18
 3845 02f3 0B03 0000 		.long	0x30b
 3846 02f7 C200 0000 		.long	0xc2
 3847 02fb 0000 0000 		.long	.LBB116
 3848 02ff 0000 0000 		.long	.LBE116
 3849 0303 05        		.byte	0x5
 3850 0304 75        		.byte	0x75
 3851 0305 13        		.uleb128 0x13
 3852 0306 3401 0000 		.long	0x134
 3853 030a 00        		.byte	0x0
 3854 030b 17        		.uleb128 0x17
 3855 030c B800 0000 		.long	0xb8
GAS LISTING C:\Users\kees2125\AppData\Local\Temp/cccfvQxc.s 			page 69


 3856 0310 0000 0000 		.long	.LBB118
 3857 0314 0000 0000 		.long	.LBE118
 3858 0318 05        		.byte	0x5
 3859 0319 79        		.byte	0x79
 3860 031a 18        		.uleb128 0x18
 3861 031b 3303 0000 		.long	0x333
 3862 031f C200 0000 		.long	0xc2
 3863 0323 0000 0000 		.long	.LBB120
 3864 0327 0000 0000 		.long	.LBE120
 3865 032b 05        		.byte	0x5
 3866 032c 7A        		.byte	0x7a
 3867 032d 13        		.uleb128 0x13
 3868 032e 3401 0000 		.long	0x134
 3869 0332 00        		.byte	0x0
 3870 0333 18        		.uleb128 0x18
 3871 0334 4C03 0000 		.long	0x34c
 3872 0338 C200 0000 		.long	0xc2
 3873 033c 0000 0000 		.long	.LBB122
 3874 0340 0000 0000 		.long	.LBE122
 3875 0344 05        		.byte	0x5
 3876 0345 7B        		.byte	0x7b
 3877 0346 13        		.uleb128 0x13
 3878 0347 3401 0000 		.long	0x134
 3879 034b 00        		.byte	0x0
 3880 034c 18        		.uleb128 0x18
 3881 034d 6503 0000 		.long	0x365
 3882 0351 C200 0000 		.long	0xc2
 3883 0355 0000 0000 		.long	.LBB124
 3884 0359 0000 0000 		.long	.LBE124
 3885 035d 05        		.byte	0x5
 3886 035e 7C        		.byte	0x7c
 3887 035f 13        		.uleb128 0x13
 3888 0360 3401 0000 		.long	0x134
 3889 0364 00        		.byte	0x0
 3890 0365 17        		.uleb128 0x17
 3891 0366 B800 0000 		.long	0xb8
 3892 036a 0000 0000 		.long	.LBB126
 3893 036e 0000 0000 		.long	.LBE126
 3894 0372 05        		.byte	0x5
 3895 0373 80        		.byte	0x80
 3896 0374 18        		.uleb128 0x18
 3897 0375 8D03 0000 		.long	0x38d
 3898 0379 C200 0000 		.long	0xc2
 3899 037d 0000 0000 		.long	.LBB128
 3900 0381 0000 0000 		.long	.LBE128
 3901 0385 05        		.byte	0x5
 3902 0386 81        		.byte	0x81
 3903 0387 13        		.uleb128 0x13
 3904 0388 3401 0000 		.long	0x134
 3905 038c 00        		.byte	0x0
 3906 038d 18        		.uleb128 0x18
 3907 038e A603 0000 		.long	0x3a6
 3908 0392 C200 0000 		.long	0xc2
 3909 0396 0000 0000 		.long	.LBB130
 3910 039a 0000 0000 		.long	.LBE130
 3911 039e 05        		.byte	0x5
 3912 039f 82        		.byte	0x82
GAS LISTING C:\Users\kees2125\AppData\Local\Temp/cccfvQxc.s 			page 70


 3913 03a0 13        		.uleb128 0x13
 3914 03a1 3401 0000 		.long	0x134
 3915 03a5 00        		.byte	0x0
 3916 03a6 18        		.uleb128 0x18
 3917 03a7 BF03 0000 		.long	0x3bf
 3918 03ab C200 0000 		.long	0xc2
 3919 03af 0000 0000 		.long	.LBB132
 3920 03b3 0000 0000 		.long	.LBE132
 3921 03b7 05        		.byte	0x5
 3922 03b8 83        		.byte	0x83
 3923 03b9 13        		.uleb128 0x13
 3924 03ba 3401 0000 		.long	0x134
 3925 03be 00        		.byte	0x0
 3926 03bf 17        		.uleb128 0x17
 3927 03c0 B800 0000 		.long	0xb8
 3928 03c4 0000 0000 		.long	.LBB134
 3929 03c8 0000 0000 		.long	.LBE134
 3930 03cc 05        		.byte	0x5
 3931 03cd 87        		.byte	0x87
 3932 03ce 18        		.uleb128 0x18
 3933 03cf E703 0000 		.long	0x3e7
 3934 03d3 C200 0000 		.long	0xc2
 3935 03d7 0000 0000 		.long	.LBB136
 3936 03db 0000 0000 		.long	.LBE136
 3937 03df 05        		.byte	0x5
 3938 03e0 88        		.byte	0x88
 3939 03e1 13        		.uleb128 0x13
 3940 03e2 3401 0000 		.long	0x134
 3941 03e6 00        		.byte	0x0
 3942 03e7 18        		.uleb128 0x18
 3943 03e8 0004 0000 		.long	0x400
 3944 03ec C200 0000 		.long	0xc2
 3945 03f0 0000 0000 		.long	.LBB138
 3946 03f4 0000 0000 		.long	.LBE138
 3947 03f8 05        		.byte	0x5
 3948 03f9 89        		.byte	0x89
 3949 03fa 13        		.uleb128 0x13
 3950 03fb 3401 0000 		.long	0x134
 3951 03ff 00        		.byte	0x0
 3952 0400 18        		.uleb128 0x18
 3953 0401 1904 0000 		.long	0x419
 3954 0405 C200 0000 		.long	0xc2
 3955 0409 0000 0000 		.long	.LBB140
 3956 040d 0000 0000 		.long	.LBE140
 3957 0411 05        		.byte	0x5
 3958 0412 8A        		.byte	0x8a
 3959 0413 13        		.uleb128 0x13
 3960 0414 3401 0000 		.long	0x134
 3961 0418 00        		.byte	0x0
 3962 0419 17        		.uleb128 0x17
 3963 041a B800 0000 		.long	0xb8
 3964 041e 0000 0000 		.long	.LBB142
 3965 0422 0000 0000 		.long	.LBE142
 3966 0426 05        		.byte	0x5
 3967 0427 8E        		.byte	0x8e
 3968 0428 18        		.uleb128 0x18
 3969 0429 4104 0000 		.long	0x441
GAS LISTING C:\Users\kees2125\AppData\Local\Temp/cccfvQxc.s 			page 71


 3970 042d C200 0000 		.long	0xc2
 3971 0431 0000 0000 		.long	.LBB144
 3972 0435 0000 0000 		.long	.LBE144
 3973 0439 05        		.byte	0x5
 3974 043a 8F        		.byte	0x8f
 3975 043b 13        		.uleb128 0x13
 3976 043c 3401 0000 		.long	0x134
 3977 0440 00        		.byte	0x0
 3978 0441 18        		.uleb128 0x18
 3979 0442 5A04 0000 		.long	0x45a
 3980 0446 C200 0000 		.long	0xc2
 3981 044a 0000 0000 		.long	.LBB146
 3982 044e 0000 0000 		.long	.LBE146
 3983 0452 05        		.byte	0x5
 3984 0453 90        		.byte	0x90
 3985 0454 13        		.uleb128 0x13
 3986 0455 3401 0000 		.long	0x134
 3987 0459 00        		.byte	0x0
 3988 045a 18        		.uleb128 0x18
 3989 045b 7304 0000 		.long	0x473
 3990 045f C200 0000 		.long	0xc2
 3991 0463 0000 0000 		.long	.LBB148
 3992 0467 0000 0000 		.long	.LBE148
 3993 046b 05        		.byte	0x5
 3994 046c 91        		.byte	0x91
 3995 046d 13        		.uleb128 0x13
 3996 046e 3401 0000 		.long	0x134
 3997 0472 00        		.byte	0x0
 3998 0473 17        		.uleb128 0x17
 3999 0474 DC00 0000 		.long	0xdc
 4000 0478 0000 0000 		.long	.LBB150
 4001 047c 0000 0000 		.long	.LBE150
 4002 0480 05        		.byte	0x5
 4003 0481 92        		.byte	0x92
 4004 0482 17        		.uleb128 0x17
 4005 0483 B800 0000 		.long	0xb8
 4006 0487 0000 0000 		.long	.LBB152
 4007 048b 0000 0000 		.long	.LBE152
 4008 048f 05        		.byte	0x5
 4009 0490 95        		.byte	0x95
 4010 0491 18        		.uleb128 0x18
 4011 0492 AA04 0000 		.long	0x4aa
 4012 0496 C200 0000 		.long	0xc2
 4013 049a 0000 0000 		.long	.LBB154
 4014 049e 0000 0000 		.long	.LBE154
 4015 04a2 05        		.byte	0x5
 4016 04a3 96        		.byte	0x96
 4017 04a4 13        		.uleb128 0x13
 4018 04a5 3401 0000 		.long	0x134
 4019 04a9 00        		.byte	0x0
 4020 04aa 18        		.uleb128 0x18
 4021 04ab C304 0000 		.long	0x4c3
 4022 04af C200 0000 		.long	0xc2
 4023 04b3 0000 0000 		.long	.LBB156
 4024 04b7 0000 0000 		.long	.LBE156
 4025 04bb 05        		.byte	0x5
 4026 04bc 97        		.byte	0x97
GAS LISTING C:\Users\kees2125\AppData\Local\Temp/cccfvQxc.s 			page 72


 4027 04bd 13        		.uleb128 0x13
 4028 04be 3401 0000 		.long	0x134
 4029 04c2 00        		.byte	0x0
 4030 04c3 18        		.uleb128 0x18
 4031 04c4 DC04 0000 		.long	0x4dc
 4032 04c8 C200 0000 		.long	0xc2
 4033 04cc 0000 0000 		.long	.LBB158
 4034 04d0 0000 0000 		.long	.LBE158
 4035 04d4 05        		.byte	0x5
 4036 04d5 98        		.byte	0x98
 4037 04d6 13        		.uleb128 0x13
 4038 04d7 3401 0000 		.long	0x134
 4039 04db 00        		.byte	0x0
 4040 04dc 17        		.uleb128 0x17
 4041 04dd DC00 0000 		.long	0xdc
 4042 04e1 0000 0000 		.long	.LBB160
 4043 04e5 0000 0000 		.long	.LBE160
 4044 04e9 05        		.byte	0x5
 4045 04ea 99        		.byte	0x99
 4046 04eb 00        		.byte	0x0
 4047 04ec 19        		.uleb128 0x19
 4048 04ed 01        		.byte	0x1
 4049 04ee 0000 0000 		.long	.LASF21
 4050 04f2 05        		.byte	0x5
 4051 04f3 A0        		.byte	0xa0
 4052 04f4 0000 0000 		.long	.LFB12
 4053 04f8 0000 0000 		.long	.LFE12
 4054 04fc 02        		.byte	0x2
 4055 04fd 90        		.byte	0x90
 4056 04fe 20        		.uleb128 0x20
 4057 04ff 19        		.uleb128 0x19
 4058 0500 01        		.byte	0x1
 4059 0501 0000 0000 		.long	.LASF22
 4060 0505 05        		.byte	0x5
 4061 0506 A7        		.byte	0xa7
 4062 0507 0000 0000 		.long	.LFB13
 4063 050b 0000 0000 		.long	.LFE13
 4064 050f 02        		.byte	0x2
 4065 0510 90        		.byte	0x90
 4066 0511 20        		.uleb128 0x20
 4067 0512 19        		.uleb128 0x19
 4068 0513 01        		.byte	0x1
 4069 0514 0000 0000 		.long	.LASF23
 4070 0518 05        		.byte	0x5
 4071 0519 B2        		.byte	0xb2
 4072 051a 0000 0000 		.long	.LFB14
 4073 051e 0000 0000 		.long	.LFE14
 4074 0522 02        		.byte	0x2
 4075 0523 90        		.byte	0x90
 4076 0524 20        		.uleb128 0x20
 4077 0525 0E        		.uleb128 0xe
 4078 0526 4D05 0000 		.long	0x54d
 4079 052a 01        		.byte	0x1
 4080 052b 0000 0000 		.long	.LASF24
 4081 052f 05        		.byte	0x5
 4082 0530 B9        		.byte	0xb9
 4083 0531 01        		.byte	0x1
GAS LISTING C:\Users\kees2125\AppData\Local\Temp/cccfvQxc.s 			page 73


 4084 0532 0000 0000 		.long	.LFB15
 4085 0536 0000 0000 		.long	.LFE15
 4086 053a 02        		.byte	0x2
 4087 053b 90        		.byte	0x90
 4088 053c 20        		.uleb128 0x20
 4089 053d 1A        		.uleb128 0x1a
 4090 053e 0000 0000 		.long	.LASF25
 4091 0542 05        		.byte	0x5
 4092 0543 B8        		.byte	0xb8
 4093 0544 3300 0000 		.long	0x33
 4094 0548 0000 0000 		.long	.LLST13
 4095 054c 00        		.byte	0x0
 4096 054d 0E        		.uleb128 0xe
 4097 054e 8405 0000 		.long	0x584
 4098 0552 01        		.byte	0x1
 4099 0553 0000 0000 		.long	.LASF26
 4100 0557 05        		.byte	0x5
 4101 0558 FC        		.byte	0xfc
 4102 0559 01        		.byte	0x1
 4103 055a 0000 0000 		.long	.LFB16
 4104 055e 0000 0000 		.long	.LFE16
 4105 0562 02        		.byte	0x2
 4106 0563 90        		.byte	0x90
 4107 0564 20        		.uleb128 0x20
 4108 0565 1A        		.uleb128 0x1a
 4109 0566 0000 0000 		.long	.LASF27
 4110 056a 05        		.byte	0x5
 4111 056b FB        		.byte	0xfb
 4112 056c 3300 0000 		.long	0x33
 4113 0570 0000 0000 		.long	.LLST15
 4114 0574 1A        		.uleb128 0x1a
 4115 0575 0000 0000 		.long	.LASF28
 4116 0579 05        		.byte	0x5
 4117 057a FB        		.byte	0xfb
 4118 057b 3300 0000 		.long	0x33
 4119 057f 0000 0000 		.long	.LLST16
 4120 0583 00        		.byte	0x0
 4121 0584 1B        		.uleb128 0x1b
 4122 0585 01        		.byte	0x1
 4123 0586 0000 0000 		.long	.LASF35
 4124 058a 05        		.byte	0x5
 4125 058b 2301      		.word	0x123
 4126 058d 01        		.byte	0x1
 4127 058e 3300 0000 		.long	0x33
 4128 0592 0000 0000 		.long	.LFB17
 4129 0596 0000 0000 		.long	.LFE17
 4130 059a 02        		.byte	0x2
 4131 059b 90        		.byte	0x90
 4132 059c 20        		.uleb128 0x20
 4133 059d 1C        		.uleb128 0x1c
 4134 059e 6900      		.string	"i"
 4135 05a0 05        		.byte	0x5
 4136 05a1 2401      		.word	0x124
 4137 05a3 3300 0000 		.long	0x33
 4138 05a7 1D        		.uleb128 0x1d
 4139 05a8 0000 0000 		.long	.LASF29
 4140 05ac 05        		.byte	0x5
GAS LISTING C:\Users\kees2125\AppData\Local\Temp/cccfvQxc.s 			page 74


 4141 05ad 2501      		.word	0x125
 4142 05af 3300 0000 		.long	0x33
 4143 05b3 0000 0000 		.long	.LLST18
 4144 05b7 1E        		.uleb128 0x1e
 4145 05b8 0000 0000 		.long	.LASF30
 4146 05bc 05        		.byte	0x5
 4147 05bd 2601      		.word	0x126
 4148 05bf 3300 0000 		.long	0x33
 4149 05c3 06        		.byte	0x6
 4150 05c4 6C        		.byte	0x6c
 4151 05c5 93        		.byte	0x93
 4152 05c6 01        		.uleb128 0x1
 4153 05c7 6D        		.byte	0x6d
 4154 05c8 93        		.byte	0x93
 4155 05c9 01        		.uleb128 0x1
 4156 05ca 1F        		.uleb128 0x1f
 4157 05cb E600 0000 		.long	0xe6
 4158 05cf 0000 0000 		.long	.LBB198
 4159 05d3 0000 0000 		.long	.LBE198
 4160 05d7 05        		.byte	0x5
 4161 05d8 2701      		.word	0x127
 4162 05da 1F        		.uleb128 0x1f
 4163 05db B800 0000 		.long	0xb8
 4164 05df 0000 0000 		.long	.LBB200
 4165 05e3 0000 0000 		.long	.LBE200
 4166 05e7 05        		.byte	0x5
 4167 05e8 2A01      		.word	0x12a
 4168 05ea 20        		.uleb128 0x20
 4169 05eb 0406 0000 		.long	0x604
 4170 05ef C200 0000 		.long	0xc2
 4171 05f3 0000 0000 		.long	.LBB202
 4172 05f7 0000 0000 		.long	.LBE202
 4173 05fb 05        		.byte	0x5
 4174 05fc 2B01      		.word	0x12b
 4175 05fe 13        		.uleb128 0x13
 4176 05ff 3401 0000 		.long	0x134
 4177 0603 00        		.byte	0x0
 4178 0604 20        		.uleb128 0x20
 4179 0605 1E06 0000 		.long	0x61e
 4180 0609 C200 0000 		.long	0xc2
 4181 060d 0000 0000 		.long	.LBB204
 4182 0611 0000 0000 		.long	.LBE204
 4183 0615 05        		.byte	0x5
 4184 0616 2C01      		.word	0x12c
 4185 0618 13        		.uleb128 0x13
 4186 0619 3401 0000 		.long	0x134
 4187 061d 00        		.byte	0x0
 4188 061e 1F        		.uleb128 0x1f
 4189 061f DC00 0000 		.long	0xdc
 4190 0623 0000 0000 		.long	.LBB206
 4191 0627 0000 0000 		.long	.LBE206
 4192 062b 05        		.byte	0x5
 4193 062c 2D01      		.word	0x12d
 4194 062e 1F        		.uleb128 0x1f
 4195 062f B800 0000 		.long	0xb8
 4196 0633 0000 0000 		.long	.LBB208
 4197 0637 0000 0000 		.long	.LBE208
GAS LISTING C:\Users\kees2125\AppData\Local\Temp/cccfvQxc.s 			page 75


 4198 063b 05        		.byte	0x5
 4199 063c 2F01      		.word	0x12f
 4200 063e 20        		.uleb128 0x20
 4201 063f 5806 0000 		.long	0x658
 4202 0643 C200 0000 		.long	0xc2
 4203 0647 0000 0000 		.long	.LBB210
 4204 064b 0000 0000 		.long	.LBE210
 4205 064f 05        		.byte	0x5
 4206 0650 3001      		.word	0x130
 4207 0652 13        		.uleb128 0x13
 4208 0653 3401 0000 		.long	0x134
 4209 0657 00        		.byte	0x0
 4210 0658 20        		.uleb128 0x20
 4211 0659 7206 0000 		.long	0x672
 4212 065d C200 0000 		.long	0xc2
 4213 0661 0000 0000 		.long	.LBB212
 4214 0665 0000 0000 		.long	.LBE212
 4215 0669 05        		.byte	0x5
 4216 066a 3101      		.word	0x131
 4217 066c 13        		.uleb128 0x13
 4218 066d 3401 0000 		.long	0x134
 4219 0671 00        		.byte	0x0
 4220 0672 1F        		.uleb128 0x1f
 4221 0673 DC00 0000 		.long	0xdc
 4222 0677 0000 0000 		.long	.LBB214
 4223 067b 0000 0000 		.long	.LBE214
 4224 067f 05        		.byte	0x5
 4225 0680 3201      		.word	0x132
 4226 0682 1F        		.uleb128 0x1f
 4227 0683 B800 0000 		.long	0xb8
 4228 0687 0000 0000 		.long	.LBB216
 4229 068b 0000 0000 		.long	.LBE216
 4230 068f 05        		.byte	0x5
 4231 0690 3401      		.word	0x134
 4232 0692 20        		.uleb128 0x20
 4233 0693 AC06 0000 		.long	0x6ac
 4234 0697 C200 0000 		.long	0xc2
 4235 069b 0000 0000 		.long	.LBB218
 4236 069f 0000 0000 		.long	.LBE218
 4237 06a3 05        		.byte	0x5
 4238 06a4 3501      		.word	0x135
 4239 06a6 13        		.uleb128 0x13
 4240 06a7 3401 0000 		.long	0x134
 4241 06ab 00        		.byte	0x0
 4242 06ac 20        		.uleb128 0x20
 4243 06ad C606 0000 		.long	0x6c6
 4244 06b1 C200 0000 		.long	0xc2
 4245 06b5 0000 0000 		.long	.LBB220
 4246 06b9 0000 0000 		.long	.LBE220
 4247 06bd 05        		.byte	0x5
 4248 06be 3601      		.word	0x136
 4249 06c0 13        		.uleb128 0x13
 4250 06c1 3401 0000 		.long	0x134
 4251 06c5 00        		.byte	0x0
 4252 06c6 1F        		.uleb128 0x1f
 4253 06c7 DC00 0000 		.long	0xdc
 4254 06cb 0000 0000 		.long	.LBB222
GAS LISTING C:\Users\kees2125\AppData\Local\Temp/cccfvQxc.s 			page 76


 4255 06cf 0000 0000 		.long	.LBE222
 4256 06d3 05        		.byte	0x5
 4257 06d4 3701      		.word	0x137
 4258 06d6 1F        		.uleb128 0x1f
 4259 06d7 B800 0000 		.long	0xb8
 4260 06db 0000 0000 		.long	.LBB224
 4261 06df 0000 0000 		.long	.LBE224
 4262 06e3 05        		.byte	0x5
 4263 06e4 3901      		.word	0x139
 4264 06e6 20        		.uleb128 0x20
 4265 06e7 0007 0000 		.long	0x700
 4266 06eb C200 0000 		.long	0xc2
 4267 06ef 0000 0000 		.long	.LBB226
 4268 06f3 0000 0000 		.long	.LBE226
 4269 06f7 05        		.byte	0x5
 4270 06f8 3A01      		.word	0x13a
 4271 06fa 13        		.uleb128 0x13
 4272 06fb 3401 0000 		.long	0x134
 4273 06ff 00        		.byte	0x0
 4274 0700 20        		.uleb128 0x20
 4275 0701 1A07 0000 		.long	0x71a
 4276 0705 C200 0000 		.long	0xc2
 4277 0709 0000 0000 		.long	.LBB228
 4278 070d 0000 0000 		.long	.LBE228
 4279 0711 05        		.byte	0x5
 4280 0712 3B01      		.word	0x13b
 4281 0714 13        		.uleb128 0x13
 4282 0715 3401 0000 		.long	0x134
 4283 0719 00        		.byte	0x0
 4284 071a 1F        		.uleb128 0x1f
 4285 071b DC00 0000 		.long	0xdc
 4286 071f 0000 0000 		.long	.LBB230
 4287 0723 0000 0000 		.long	.LBE230
 4288 0727 05        		.byte	0x5
 4289 0728 3C01      		.word	0x13c
 4290 072a 21        		.uleb128 0x21
 4291 072b 4607 0000 		.long	0x746
 4292 072f 0000 0000 		.long	.LBB232
 4293 0733 0000 0000 		.long	.LBE232
 4294 0737 22        		.uleb128 0x22
 4295 0738 6900      		.string	"i"
 4296 073a 05        		.byte	0x5
 4297 073b 5601      		.word	0x156
 4298 073d 3300 0000 		.long	0x33
 4299 0741 0000 0000 		.long	.LLST19
 4300 0745 00        		.byte	0x0
 4301 0746 10        		.uleb128 0x10
 4302 0747 0000 0000 		.long	.LBB233
 4303 074b 0000 0000 		.long	.LBE233
 4304 074f 22        		.uleb128 0x22
 4305 0750 6900      		.string	"i"
 4306 0752 05        		.byte	0x5
 4307 0753 6101      		.word	0x161
 4308 0755 3300 0000 		.long	0x33
 4309 0759 0000 0000 		.long	.LLST20
 4310 075d 00        		.byte	0x0
 4311 075e 00        		.byte	0x0
GAS LISTING C:\Users\kees2125\AppData\Local\Temp/cccfvQxc.s 			page 77


 4312 075f 00        		.byte	0x0
 4313               		.section	.debug_abbrev
 4314 0000 01        		.uleb128 0x1
 4315 0001 11        		.uleb128 0x11
 4316 0002 01        		.byte	0x1
 4317 0003 10        		.uleb128 0x10
 4318 0004 06        		.uleb128 0x6
 4319 0005 12        		.uleb128 0x12
 4320 0006 01        		.uleb128 0x1
 4321 0007 11        		.uleb128 0x11
 4322 0008 01        		.uleb128 0x1
 4323 0009 25        		.uleb128 0x25
 4324 000a 0E        		.uleb128 0xe
 4325 000b 13        		.uleb128 0x13
 4326 000c 0B        		.uleb128 0xb
 4327 000d 03        		.uleb128 0x3
 4328 000e 0E        		.uleb128 0xe
 4329 000f 1B        		.uleb128 0x1b
 4330 0010 0E        		.uleb128 0xe
 4331 0011 00        		.byte	0x0
 4332 0012 00        		.byte	0x0
 4333 0013 02        		.uleb128 0x2
 4334 0014 24        		.uleb128 0x24
 4335 0015 00        		.byte	0x0
 4336 0016 03        		.uleb128 0x3
 4337 0017 0E        		.uleb128 0xe
 4338 0018 0B        		.uleb128 0xb
 4339 0019 0B        		.uleb128 0xb
 4340 001a 3E        		.uleb128 0x3e
 4341 001b 0B        		.uleb128 0xb
 4342 001c 00        		.byte	0x0
 4343 001d 00        		.byte	0x0
 4344 001e 03        		.uleb128 0x3
 4345 001f 24        		.uleb128 0x24
 4346 0020 00        		.byte	0x0
 4347 0021 03        		.uleb128 0x3
 4348 0022 08        		.uleb128 0x8
 4349 0023 0B        		.uleb128 0xb
 4350 0024 0B        		.uleb128 0xb
 4351 0025 3E        		.uleb128 0x3e
 4352 0026 0B        		.uleb128 0xb
 4353 0027 00        		.byte	0x0
 4354 0028 00        		.byte	0x0
 4355 0029 04        		.uleb128 0x4
 4356 002a 16        		.uleb128 0x16
 4357 002b 00        		.byte	0x0
 4358 002c 03        		.uleb128 0x3
 4359 002d 0E        		.uleb128 0xe
 4360 002e 3A        		.uleb128 0x3a
 4361 002f 0B        		.uleb128 0xb
 4362 0030 3B        		.uleb128 0x3b
 4363 0031 0B        		.uleb128 0xb
 4364 0032 49        		.uleb128 0x49
 4365 0033 13        		.uleb128 0x13
 4366 0034 00        		.byte	0x0
 4367 0035 00        		.byte	0x0
 4368 0036 05        		.uleb128 0x5
GAS LISTING C:\Users\kees2125\AppData\Local\Temp/cccfvQxc.s 			page 78


 4369 0037 2E        		.uleb128 0x2e
 4370 0038 01        		.byte	0x1
 4371 0039 01        		.uleb128 0x1
 4372 003a 13        		.uleb128 0x13
 4373 003b 03        		.uleb128 0x3
 4374 003c 0E        		.uleb128 0xe
 4375 003d 3A        		.uleb128 0x3a
 4376 003e 0B        		.uleb128 0xb
 4377 003f 3B        		.uleb128 0x3b
 4378 0040 0B        		.uleb128 0xb
 4379 0041 27        		.uleb128 0x27
 4380 0042 0C        		.uleb128 0xc
 4381 0043 20        		.uleb128 0x20
 4382 0044 0B        		.uleb128 0xb
 4383 0045 00        		.byte	0x0
 4384 0046 00        		.byte	0x0
 4385 0047 06        		.uleb128 0x6
 4386 0048 05        		.uleb128 0x5
 4387 0049 00        		.byte	0x0
 4388 004a 03        		.uleb128 0x3
 4389 004b 0E        		.uleb128 0xe
 4390 004c 3A        		.uleb128 0x3a
 4391 004d 0B        		.uleb128 0xb
 4392 004e 3B        		.uleb128 0x3b
 4393 004f 0B        		.uleb128 0xb
 4394 0050 49        		.uleb128 0x49
 4395 0051 13        		.uleb128 0x13
 4396 0052 00        		.byte	0x0
 4397 0053 00        		.byte	0x0
 4398 0054 07        		.uleb128 0x7
 4399 0055 34        		.uleb128 0x34
 4400 0056 00        		.byte	0x0
 4401 0057 03        		.uleb128 0x3
 4402 0058 0E        		.uleb128 0xe
 4403 0059 3A        		.uleb128 0x3a
 4404 005a 0B        		.uleb128 0xb
 4405 005b 3B        		.uleb128 0x3b
 4406 005c 0B        		.uleb128 0xb
 4407 005d 49        		.uleb128 0x49
 4408 005e 13        		.uleb128 0x13
 4409 005f 00        		.byte	0x0
 4410 0060 00        		.byte	0x0
 4411 0061 08        		.uleb128 0x8
 4412 0062 0B        		.uleb128 0xb
 4413 0063 00        		.byte	0x0
 4414 0064 00        		.byte	0x0
 4415 0065 00        		.byte	0x0
 4416 0066 09        		.uleb128 0x9
 4417 0067 2E        		.uleb128 0x2e
 4418 0068 00        		.byte	0x0
 4419 0069 3F        		.uleb128 0x3f
 4420 006a 0C        		.uleb128 0xc
 4421 006b 03        		.uleb128 0x3
 4422 006c 0E        		.uleb128 0xe
 4423 006d 3A        		.uleb128 0x3a
 4424 006e 0B        		.uleb128 0xb
 4425 006f 3B        		.uleb128 0x3b
GAS LISTING C:\Users\kees2125\AppData\Local\Temp/cccfvQxc.s 			page 79


 4426 0070 0B        		.uleb128 0xb
 4427 0071 27        		.uleb128 0x27
 4428 0072 0C        		.uleb128 0xc
 4429 0073 20        		.uleb128 0x20
 4430 0074 0B        		.uleb128 0xb
 4431 0075 00        		.byte	0x0
 4432 0076 00        		.byte	0x0
 4433 0077 0A        		.uleb128 0xa
 4434 0078 2E        		.uleb128 0x2e
 4435 0079 01        		.byte	0x1
 4436 007a 01        		.uleb128 0x1
 4437 007b 13        		.uleb128 0x13
 4438 007c 3F        		.uleb128 0x3f
 4439 007d 0C        		.uleb128 0xc
 4440 007e 03        		.uleb128 0x3
 4441 007f 0E        		.uleb128 0xe
 4442 0080 3A        		.uleb128 0x3a
 4443 0081 0B        		.uleb128 0xb
 4444 0082 3B        		.uleb128 0x3b
 4445 0083 0B        		.uleb128 0xb
 4446 0084 27        		.uleb128 0x27
 4447 0085 0C        		.uleb128 0xc
 4448 0086 20        		.uleb128 0x20
 4449 0087 0B        		.uleb128 0xb
 4450 0088 00        		.byte	0x0
 4451 0089 00        		.byte	0x0
 4452 008a 0B        		.uleb128 0xb
 4453 008b 2E        		.uleb128 0x2e
 4454 008c 00        		.byte	0x0
 4455 008d 31        		.uleb128 0x31
 4456 008e 13        		.uleb128 0x13
 4457 008f 11        		.uleb128 0x11
 4458 0090 01        		.uleb128 0x1
 4459 0091 12        		.uleb128 0x12
 4460 0092 01        		.uleb128 0x1
 4461 0093 40        		.uleb128 0x40
 4462 0094 0A        		.uleb128 0xa
 4463 0095 00        		.byte	0x0
 4464 0096 00        		.byte	0x0
 4465 0097 0C        		.uleb128 0xc
 4466 0098 2E        		.uleb128 0x2e
 4467 0099 01        		.byte	0x1
 4468 009a 01        		.uleb128 0x1
 4469 009b 13        		.uleb128 0x13
 4470 009c 31        		.uleb128 0x31
 4471 009d 13        		.uleb128 0x13
 4472 009e 11        		.uleb128 0x11
 4473 009f 01        		.uleb128 0x1
 4474 00a0 12        		.uleb128 0x12
 4475 00a1 01        		.uleb128 0x1
 4476 00a2 40        		.uleb128 0x40
 4477 00a3 0A        		.uleb128 0xa
 4478 00a4 00        		.byte	0x0
 4479 00a5 00        		.byte	0x0
 4480 00a6 0D        		.uleb128 0xd
 4481 00a7 05        		.uleb128 0x5
 4482 00a8 00        		.byte	0x0
GAS LISTING C:\Users\kees2125\AppData\Local\Temp/cccfvQxc.s 			page 80


 4483 00a9 31        		.uleb128 0x31
 4484 00aa 13        		.uleb128 0x13
 4485 00ab 02        		.uleb128 0x2
 4486 00ac 06        		.uleb128 0x6
 4487 00ad 00        		.byte	0x0
 4488 00ae 00        		.byte	0x0
 4489 00af 0E        		.uleb128 0xe
 4490 00b0 2E        		.uleb128 0x2e
 4491 00b1 01        		.byte	0x1
 4492 00b2 01        		.uleb128 0x1
 4493 00b3 13        		.uleb128 0x13
 4494 00b4 3F        		.uleb128 0x3f
 4495 00b5 0C        		.uleb128 0xc
 4496 00b6 03        		.uleb128 0x3
 4497 00b7 0E        		.uleb128 0xe
 4498 00b8 3A        		.uleb128 0x3a
 4499 00b9 0B        		.uleb128 0xb
 4500 00ba 3B        		.uleb128 0x3b
 4501 00bb 0B        		.uleb128 0xb
 4502 00bc 27        		.uleb128 0x27
 4503 00bd 0C        		.uleb128 0xc
 4504 00be 11        		.uleb128 0x11
 4505 00bf 01        		.uleb128 0x1
 4506 00c0 12        		.uleb128 0x12
 4507 00c1 01        		.uleb128 0x1
 4508 00c2 40        		.uleb128 0x40
 4509 00c3 0A        		.uleb128 0xa
 4510 00c4 00        		.byte	0x0
 4511 00c5 00        		.byte	0x0
 4512 00c6 0F        		.uleb128 0xf
 4513 00c7 05        		.uleb128 0x5
 4514 00c8 00        		.byte	0x0
 4515 00c9 03        		.uleb128 0x3
 4516 00ca 08        		.uleb128 0x8
 4517 00cb 3A        		.uleb128 0x3a
 4518 00cc 0B        		.uleb128 0xb
 4519 00cd 3B        		.uleb128 0x3b
 4520 00ce 0B        		.uleb128 0xb
 4521 00cf 49        		.uleb128 0x49
 4522 00d0 13        		.uleb128 0x13
 4523 00d1 02        		.uleb128 0x2
 4524 00d2 06        		.uleb128 0x6
 4525 00d3 00        		.byte	0x0
 4526 00d4 00        		.byte	0x0
 4527 00d5 10        		.uleb128 0x10
 4528 00d6 0B        		.uleb128 0xb
 4529 00d7 01        		.byte	0x1
 4530 00d8 11        		.uleb128 0x11
 4531 00d9 01        		.uleb128 0x1
 4532 00da 12        		.uleb128 0x12
 4533 00db 01        		.uleb128 0x1
 4534 00dc 00        		.byte	0x0
 4535 00dd 00        		.byte	0x0
 4536 00de 11        		.uleb128 0x11
 4537 00df 34        		.uleb128 0x34
 4538 00e0 00        		.byte	0x0
 4539 00e1 03        		.uleb128 0x3
GAS LISTING C:\Users\kees2125\AppData\Local\Temp/cccfvQxc.s 			page 81


 4540 00e2 08        		.uleb128 0x8
 4541 00e3 3A        		.uleb128 0x3a
 4542 00e4 0B        		.uleb128 0xb
 4543 00e5 3B        		.uleb128 0x3b
 4544 00e6 0B        		.uleb128 0xb
 4545 00e7 49        		.uleb128 0x49
 4546 00e8 13        		.uleb128 0x13
 4547 00e9 02        		.uleb128 0x2
 4548 00ea 0A        		.uleb128 0xa
 4549 00eb 00        		.byte	0x0
 4550 00ec 00        		.byte	0x0
 4551 00ed 12        		.uleb128 0x12
 4552 00ee 1D        		.uleb128 0x1d
 4553 00ef 01        		.byte	0x1
 4554 00f0 31        		.uleb128 0x31
 4555 00f1 13        		.uleb128 0x13
 4556 00f2 11        		.uleb128 0x11
 4557 00f3 01        		.uleb128 0x1
 4558 00f4 12        		.uleb128 0x12
 4559 00f5 01        		.uleb128 0x1
 4560 00f6 58        		.uleb128 0x58
 4561 00f7 0B        		.uleb128 0xb
 4562 00f8 59        		.uleb128 0x59
 4563 00f9 0B        		.uleb128 0xb
 4564 00fa 00        		.byte	0x0
 4565 00fb 00        		.byte	0x0
 4566 00fc 13        		.uleb128 0x13
 4567 00fd 05        		.uleb128 0x5
 4568 00fe 00        		.byte	0x0
 4569 00ff 31        		.uleb128 0x31
 4570 0100 13        		.uleb128 0x13
 4571 0101 00        		.byte	0x0
 4572 0102 00        		.byte	0x0
 4573 0103 14        		.uleb128 0x14
 4574 0104 34        		.uleb128 0x34
 4575 0105 00        		.byte	0x0
 4576 0106 31        		.uleb128 0x31
 4577 0107 13        		.uleb128 0x13
 4578 0108 00        		.byte	0x0
 4579 0109 00        		.byte	0x0
 4580 010a 15        		.uleb128 0x15
 4581 010b 05        		.uleb128 0x5
 4582 010c 00        		.byte	0x0
 4583 010d 31        		.uleb128 0x31
 4584 010e 13        		.uleb128 0x13
 4585 010f 02        		.uleb128 0x2
 4586 0110 0A        		.uleb128 0xa
 4587 0111 00        		.byte	0x0
 4588 0112 00        		.byte	0x0
 4589 0113 16        		.uleb128 0x16
 4590 0114 05        		.uleb128 0x5
 4591 0115 00        		.byte	0x0
 4592 0116 03        		.uleb128 0x3
 4593 0117 0E        		.uleb128 0xe
 4594 0118 3A        		.uleb128 0x3a
 4595 0119 0B        		.uleb128 0xb
 4596 011a 3B        		.uleb128 0x3b
GAS LISTING C:\Users\kees2125\AppData\Local\Temp/cccfvQxc.s 			page 82


 4597 011b 0B        		.uleb128 0xb
 4598 011c 49        		.uleb128 0x49
 4599 011d 13        		.uleb128 0x13
 4600 011e 02        		.uleb128 0x2
 4601 011f 0A        		.uleb128 0xa
 4602 0120 00        		.byte	0x0
 4603 0121 00        		.byte	0x0
 4604 0122 17        		.uleb128 0x17
 4605 0123 1D        		.uleb128 0x1d
 4606 0124 00        		.byte	0x0
 4607 0125 31        		.uleb128 0x31
 4608 0126 13        		.uleb128 0x13
 4609 0127 11        		.uleb128 0x11
 4610 0128 01        		.uleb128 0x1
 4611 0129 12        		.uleb128 0x12
 4612 012a 01        		.uleb128 0x1
 4613 012b 58        		.uleb128 0x58
 4614 012c 0B        		.uleb128 0xb
 4615 012d 59        		.uleb128 0x59
 4616 012e 0B        		.uleb128 0xb
 4617 012f 00        		.byte	0x0
 4618 0130 00        		.byte	0x0
 4619 0131 18        		.uleb128 0x18
 4620 0132 1D        		.uleb128 0x1d
 4621 0133 01        		.byte	0x1
 4622 0134 01        		.uleb128 0x1
 4623 0135 13        		.uleb128 0x13
 4624 0136 31        		.uleb128 0x31
 4625 0137 13        		.uleb128 0x13
 4626 0138 11        		.uleb128 0x11
 4627 0139 01        		.uleb128 0x1
 4628 013a 12        		.uleb128 0x12
 4629 013b 01        		.uleb128 0x1
 4630 013c 58        		.uleb128 0x58
 4631 013d 0B        		.uleb128 0xb
 4632 013e 59        		.uleb128 0x59
 4633 013f 0B        		.uleb128 0xb
 4634 0140 00        		.byte	0x0
 4635 0141 00        		.byte	0x0
 4636 0142 19        		.uleb128 0x19
 4637 0143 2E        		.uleb128 0x2e
 4638 0144 00        		.byte	0x0
 4639 0145 3F        		.uleb128 0x3f
 4640 0146 0C        		.uleb128 0xc
 4641 0147 03        		.uleb128 0x3
 4642 0148 0E        		.uleb128 0xe
 4643 0149 3A        		.uleb128 0x3a
 4644 014a 0B        		.uleb128 0xb
 4645 014b 3B        		.uleb128 0x3b
 4646 014c 0B        		.uleb128 0xb
 4647 014d 11        		.uleb128 0x11
 4648 014e 01        		.uleb128 0x1
 4649 014f 12        		.uleb128 0x12
 4650 0150 01        		.uleb128 0x1
 4651 0151 40        		.uleb128 0x40
 4652 0152 0A        		.uleb128 0xa
 4653 0153 00        		.byte	0x0
GAS LISTING C:\Users\kees2125\AppData\Local\Temp/cccfvQxc.s 			page 83


 4654 0154 00        		.byte	0x0
 4655 0155 1A        		.uleb128 0x1a
 4656 0156 05        		.uleb128 0x5
 4657 0157 00        		.byte	0x0
 4658 0158 03        		.uleb128 0x3
 4659 0159 0E        		.uleb128 0xe
 4660 015a 3A        		.uleb128 0x3a
 4661 015b 0B        		.uleb128 0xb
 4662 015c 3B        		.uleb128 0x3b
 4663 015d 0B        		.uleb128 0xb
 4664 015e 49        		.uleb128 0x49
 4665 015f 13        		.uleb128 0x13
 4666 0160 02        		.uleb128 0x2
 4667 0161 06        		.uleb128 0x6
 4668 0162 00        		.byte	0x0
 4669 0163 00        		.byte	0x0
 4670 0164 1B        		.uleb128 0x1b
 4671 0165 2E        		.uleb128 0x2e
 4672 0166 01        		.byte	0x1
 4673 0167 3F        		.uleb128 0x3f
 4674 0168 0C        		.uleb128 0xc
 4675 0169 03        		.uleb128 0x3
 4676 016a 0E        		.uleb128 0xe
 4677 016b 3A        		.uleb128 0x3a
 4678 016c 0B        		.uleb128 0xb
 4679 016d 3B        		.uleb128 0x3b
 4680 016e 05        		.uleb128 0x5
 4681 016f 27        		.uleb128 0x27
 4682 0170 0C        		.uleb128 0xc
 4683 0171 49        		.uleb128 0x49
 4684 0172 13        		.uleb128 0x13
 4685 0173 11        		.uleb128 0x11
 4686 0174 01        		.uleb128 0x1
 4687 0175 12        		.uleb128 0x12
 4688 0176 01        		.uleb128 0x1
 4689 0177 40        		.uleb128 0x40
 4690 0178 0A        		.uleb128 0xa
 4691 0179 00        		.byte	0x0
 4692 017a 00        		.byte	0x0
 4693 017b 1C        		.uleb128 0x1c
 4694 017c 34        		.uleb128 0x34
 4695 017d 00        		.byte	0x0
 4696 017e 03        		.uleb128 0x3
 4697 017f 08        		.uleb128 0x8
 4698 0180 3A        		.uleb128 0x3a
 4699 0181 0B        		.uleb128 0xb
 4700 0182 3B        		.uleb128 0x3b
 4701 0183 05        		.uleb128 0x5
 4702 0184 49        		.uleb128 0x49
 4703 0185 13        		.uleb128 0x13
 4704 0186 00        		.byte	0x0
 4705 0187 00        		.byte	0x0
 4706 0188 1D        		.uleb128 0x1d
 4707 0189 34        		.uleb128 0x34
 4708 018a 00        		.byte	0x0
 4709 018b 03        		.uleb128 0x3
 4710 018c 0E        		.uleb128 0xe
GAS LISTING C:\Users\kees2125\AppData\Local\Temp/cccfvQxc.s 			page 84


 4711 018d 3A        		.uleb128 0x3a
 4712 018e 0B        		.uleb128 0xb
 4713 018f 3B        		.uleb128 0x3b
 4714 0190 05        		.uleb128 0x5
 4715 0191 49        		.uleb128 0x49
 4716 0192 13        		.uleb128 0x13
 4717 0193 02        		.uleb128 0x2
 4718 0194 06        		.uleb128 0x6
 4719 0195 00        		.byte	0x0
 4720 0196 00        		.byte	0x0
 4721 0197 1E        		.uleb128 0x1e
 4722 0198 34        		.uleb128 0x34
 4723 0199 00        		.byte	0x0
 4724 019a 03        		.uleb128 0x3
 4725 019b 0E        		.uleb128 0xe
 4726 019c 3A        		.uleb128 0x3a
 4727 019d 0B        		.uleb128 0xb
 4728 019e 3B        		.uleb128 0x3b
 4729 019f 05        		.uleb128 0x5
 4730 01a0 49        		.uleb128 0x49
 4731 01a1 13        		.uleb128 0x13
 4732 01a2 02        		.uleb128 0x2
 4733 01a3 0A        		.uleb128 0xa
 4734 01a4 00        		.byte	0x0
 4735 01a5 00        		.byte	0x0
 4736 01a6 1F        		.uleb128 0x1f
 4737 01a7 1D        		.uleb128 0x1d
 4738 01a8 00        		.byte	0x0
 4739 01a9 31        		.uleb128 0x31
 4740 01aa 13        		.uleb128 0x13
 4741 01ab 11        		.uleb128 0x11
 4742 01ac 01        		.uleb128 0x1
 4743 01ad 12        		.uleb128 0x12
 4744 01ae 01        		.uleb128 0x1
 4745 01af 58        		.uleb128 0x58
 4746 01b0 0B        		.uleb128 0xb
 4747 01b1 59        		.uleb128 0x59
 4748 01b2 05        		.uleb128 0x5
 4749 01b3 00        		.byte	0x0
 4750 01b4 00        		.byte	0x0
 4751 01b5 20        		.uleb128 0x20
 4752 01b6 1D        		.uleb128 0x1d
 4753 01b7 01        		.byte	0x1
 4754 01b8 01        		.uleb128 0x1
 4755 01b9 13        		.uleb128 0x13
 4756 01ba 31        		.uleb128 0x31
 4757 01bb 13        		.uleb128 0x13
 4758 01bc 11        		.uleb128 0x11
 4759 01bd 01        		.uleb128 0x1
 4760 01be 12        		.uleb128 0x12
 4761 01bf 01        		.uleb128 0x1
 4762 01c0 58        		.uleb128 0x58
 4763 01c1 0B        		.uleb128 0xb
 4764 01c2 59        		.uleb128 0x59
 4765 01c3 05        		.uleb128 0x5
 4766 01c4 00        		.byte	0x0
 4767 01c5 00        		.byte	0x0
GAS LISTING C:\Users\kees2125\AppData\Local\Temp/cccfvQxc.s 			page 85


 4768 01c6 21        		.uleb128 0x21
 4769 01c7 0B        		.uleb128 0xb
 4770 01c8 01        		.byte	0x1
 4771 01c9 01        		.uleb128 0x1
 4772 01ca 13        		.uleb128 0x13
 4773 01cb 11        		.uleb128 0x11
 4774 01cc 01        		.uleb128 0x1
 4775 01cd 12        		.uleb128 0x12
 4776 01ce 01        		.uleb128 0x1
 4777 01cf 00        		.byte	0x0
 4778 01d0 00        		.byte	0x0
 4779 01d1 22        		.uleb128 0x22
 4780 01d2 34        		.uleb128 0x34
 4781 01d3 00        		.byte	0x0
 4782 01d4 03        		.uleb128 0x3
 4783 01d5 08        		.uleb128 0x8
 4784 01d6 3A        		.uleb128 0x3a
 4785 01d7 0B        		.uleb128 0xb
 4786 01d8 3B        		.uleb128 0x3b
 4787 01d9 05        		.uleb128 0x5
 4788 01da 49        		.uleb128 0x49
 4789 01db 13        		.uleb128 0x13
 4790 01dc 02        		.uleb128 0x2
 4791 01dd 06        		.uleb128 0x6
 4792 01de 00        		.byte	0x0
 4793 01df 00        		.byte	0x0
 4794 01e0 00        		.byte	0x0
 4795               		.section	.debug_pubnames,"",@progbits
 4796 0000 A900 0000 		.long	0xa9
 4797 0004 0200      		.word	0x2
 4798 0006 0000 0000 		.long	.Ldebug_info0
 4799 000a 6007 0000 		.long	0x760
 4800 000e F000 0000 		.long	0xf0
 4801 0012 7477 695F 		.string	"twi_init"
 4801      696E 6974 
 4801      00
 4802 001b 0001 0000 		.long	0x100
 4803 001f 7477 695F 		.string	"twi_start"
 4803      7374 6172 
 4803      7400 
 4804 0029 1001 0000 		.long	0x110
 4805 002d 7477 695F 		.string	"twi_stop"
 4805      7374 6F70 
 4805      00
 4806 0036 2001 0000 		.long	0x120
 4807 003a 7477 695F 		.string	"twi_tx"
 4807      7478 00
 4808 0041 3E01 0000 		.long	0x13e
 4809 0045 7761 6974 		.string	"wait"
 4809      00
 4810 004a C401 0000 		.long	0x1c4
 4811 004e 7365 744C 		.string	"setLedRow"
 4811      6564 526F 
 4811      7700 
 4812 0058 EC04 0000 		.long	0x4ec
 4813 005c 6172 726F 		.string	"arrowUp"
 4813      7755 7000 
GAS LISTING C:\Users\kees2125\AppData\Local\Temp/cccfvQxc.s 			page 86


 4814 0064 FF04 0000 		.long	0x4ff
 4815 0068 636C 6561 		.string	"clearScreen"
 4815      7253 6372 
 4815      6565 6E00 
 4816 0074 1205 0000 		.long	0x512
 4817 0078 6172 726F 		.string	"arrowDown"
 4817      7744 6F77 
 4817      6E00 
 4818 0082 2505 0000 		.long	0x525
 4819 0086 6469 7370 		.string	"displayNummer"
 4819      6C61 794E 
 4819      756D 6D65 
 4819      7200 
 4820 0094 4D05 0000 		.long	0x54d
 4821 0098 746F 466C 		.string	"toFloor"
 4821      6F6F 7200 
 4822 00a0 8405 0000 		.long	0x584
 4823 00a4 6D61 696E 		.string	"main"
 4823      00
 4824 00a9 0000 0000 		.long	0x0
 4825               		.section	.debug_aranges,"",@progbits
 4826 0000 1C00 0000 		.long	0x1c
 4827 0004 0200      		.word	0x2
 4828 0006 0000 0000 		.long	.Ldebug_info0
 4829 000a 04        		.byte	0x4
 4830 000b 00        		.byte	0x0
 4831 000c 0000      		.word	0x0
 4832 000e 0000      		.word	0x0
 4833 0010 0000 0000 		.long	.Ltext0
 4834 0014 1208 0000 		.long	.Letext0-.Ltext0
 4835 0018 0000 0000 		.long	0x0
 4836 001c 0000 0000 		.long	0x0
 4837               		.section	.debug_str,"MS",@progbits,1
 4838               	.LASF21:
 4839 0000 6172 726F 		.string	"arrowUp"
 4839      7755 7000 
 4840               	.LASF32:
 4841 0008 6C65 646D 		.string	"ledmatrix.c"
 4841      6174 7269 
 4841      782E 6300 
 4842               	.LASF20:
 4843 0014 7365 744C 		.string	"setLedRow"
 4843      6564 526F 
 4843      7700 
 4844               	.LASF14:
 4845 001e 6461 7461 		.string	"data"
 4845      00
 4846               	.LASF1:
 4847 0023 756E 7369 		.string	"unsigned char"
 4847      676E 6564 
 4847      2063 6861 
 4847      7200 
 4848               	.LASF7:
 4849 0031 5F64 656C 		.string	"_delay_loop_2"
 4849      6179 5F6C 
 4849      6F6F 705F 
 4849      3200 
GAS LISTING C:\Users\kees2125\AppData\Local\Temp/cccfvQxc.s 			page 87


 4850               	.LASF4:
 4851 003f 6C6F 6E67 		.string	"long unsigned int"
 4851      2075 6E73 
 4851      6967 6E65 
 4851      6420 696E 
 4851      7400 
 4852               	.LASF24:
 4853 0051 6469 7370 		.string	"displayNummer"
 4853      6C61 794E 
 4853      756D 6D65 
 4853      7200 
 4854               	.LASF8:
 4855 005f 5F64 656C 		.string	"_delay_ms"
 4855      6179 5F6D 
 4855      7300 
 4856               	.LASF29:
 4857 0069 4375 7272 		.string	"CurrentFloor"
 4857      656E 7446 
 4857      6C6F 6F72 
 4857      00
 4858               	.LASF22:
 4859 0076 636C 6561 		.string	"clearScreen"
 4859      7253 6372 
 4859      6565 6E00 
 4860               	.LASF30:
 4861 0082 4465 7374 		.string	"DestinationFloor"
 4861      696E 6174 
 4861      696F 6E46 
 4861      6C6F 6F72 
 4861      00
 4862               	.LASF13:
 4863 0093 646F 7562 		.string	"double"
 4863      6C65 00
 4864               	.LASF16:
 4865 009a 7477 695F 		.string	"twi_stop"
 4865      7374 6F70 
 4865      00
 4866               	.LASF25:
 4867 00a3 6E75 6D6D 		.string	"nummer"
 4867      6572 00
 4868               	.LASF35:
 4869 00aa 6D61 696E 		.string	"main"
 4869      00
 4870               	.LASF27:
 4871 00af 6375 7272 		.string	"currentFloor"
 4871      656E 7446 
 4871      6C6F 6F72 
 4871      00
 4872               	.LASF23:
 4873 00bc 6172 726F 		.string	"arrowDown"
 4873      7744 6F77 
 4873      6E00 
 4874               	.LASF17:
 4875 00c6 7477 695F 		.string	"twi_init"
 4875      696E 6974 
 4875      00
 4876               	.LASF19:
GAS LISTING C:\Users\kees2125\AppData\Local\Temp/cccfvQxc.s 			page 88


 4877 00cf 7761 6974 		.string	"wait"
 4877      00
 4878               	.LASF2:
 4879 00d4 756E 7369 		.string	"unsigned int"
 4879      676E 6564 
 4879      2069 6E74 
 4879      00
 4880               	.LASF6:
 4881 00e1 6C6F 6E67 		.string	"long long unsigned int"
 4881      206C 6F6E 
 4881      6720 756E 
 4881      7369 676E 
 4881      6564 2069 
 4882               	.LASF15:
 4883 00f8 7477 695F 		.string	"twi_start"
 4883      7374 6172 
 4883      7400 
 4884               	.LASF5:
 4885 0102 6C6F 6E67 		.string	"long long int"
 4885      206C 6F6E 
 4885      6720 696E 
 4885      7400 
 4886               	.LASF33:
 4887 0110 433A 5C55 		.ascii	"C:\\Users\\kees"
 4887      7365 7273 
 4887      5C6B 6565 
 4887      73
 4888 011d 3231 3235 		.string	"2125\\Documents\\GitHub\\MicroControllerOpdrachten\\dotmatix display"
 4888      5C44 6F63 
 4888      756D 656E 
 4888      7473 5C47 
 4888      6974 4875 
 4889               	.LASF34:
 4890 015e 7569 6E74 		.string	"uint16_t"
 4890      3136 5F74 
 4890      00
 4891               	.LASF9:
 4892 0167 5F5F 636F 		.string	"__count"
 4892      756E 7400 
 4893               	.LASF18:
 4894 016f 7477 695F 		.string	"twi_tx"
 4894      7478 00
 4895               	.LASF31:
 4896 0176 474E 5520 		.string	"GNU C 4.1.2 (WinAVR 20070525)"
 4896      4320 342E 
 4896      312E 3220 
 4896      2857 696E 
 4896      4156 5220 
 4897               	.LASF12:
 4898 0194 5F5F 746D 		.string	"__tmp"
 4898      7000 
 4899               	.LASF11:
 4900 019a 5F5F 7469 		.string	"__ticks"
 4900      636B 7300 
 4901               	.LASF3:
 4902 01a2 6C6F 6E67 		.string	"long int"
 4902      2069 6E74 
GAS LISTING C:\Users\kees2125\AppData\Local\Temp/cccfvQxc.s 			page 89


 4902      00
 4903               	.LASF26:
 4904 01ab 746F 466C 		.string	"toFloor"
 4904      6F6F 7200 
 4905               	.LASF0:
 4906 01b3 7369 676E 		.string	"signed char"
 4906      6564 2063 
 4906      6861 7200 
 4907               	.LASF28:
 4908 01bf 6465 7374 		.string	"destination"
 4908      696E 6174 
 4908      696F 6E00 
 4909               	.LASF10:
 4910 01cb 5F5F 6D73 		.string	"__ms"
 4910      00
 4911               	/* File "ledmatrix.c": code 1054 = 0x041e (1035), prologues   6, epilogues  13 */
GAS LISTING C:\Users\kees2125\AppData\Local\Temp/cccfvQxc.s 			page 90


DEFINED SYMBOLS
                            *ABS*:00000000 ledmatrix.c
C:\Users\kees2125\AppData\Local\Temp/cccfvQxc.s:3      *ABS*:0000003f __SREG__
C:\Users\kees2125\AppData\Local\Temp/cccfvQxc.s:4      *ABS*:0000003e __SP_H__
C:\Users\kees2125\AppData\Local\Temp/cccfvQxc.s:5      *ABS*:0000003d __SP_L__
C:\Users\kees2125\AppData\Local\Temp/cccfvQxc.s:6      *ABS*:00000000 __tmp_reg__
C:\Users\kees2125\AppData\Local\Temp/cccfvQxc.s:7      *ABS*:00000001 __zero_reg__
C:\Users\kees2125\AppData\Local\Temp/cccfvQxc.s:20     .text:00000000 twi_init
C:\Users\kees2125\AppData\Local\Temp/cccfvQxc.s:38     .text:0000000c twi_start
C:\Users\kees2125\AppData\Local\Temp/cccfvQxc.s:59     .text:0000001c twi_stop
C:\Users\kees2125\AppData\Local\Temp/cccfvQxc.s:75     .text:00000024 twi_tx
C:\Users\kees2125\AppData\Local\Temp/cccfvQxc.s:100    .text:00000038 wait
C:\Users\kees2125\AppData\Local\Temp/cccfvQxc.s:147    .text:00000056 setLedRow
C:\Users\kees2125\AppData\Local\Temp/cccfvQxc.s:683    .text:000002c4 arrowUp
C:\Users\kees2125\AppData\Local\Temp/cccfvQxc.s:720    .text:000002f6 clearScreen
C:\Users\kees2125\AppData\Local\Temp/cccfvQxc.s:781    .text:00000358 arrowDown
C:\Users\kees2125\AppData\Local\Temp/cccfvQxc.s:818    .text:0000038a displayNummer
C:\Users\kees2125\AppData\Local\Temp/cccfvQxc.s:1093   .text:0000051e toFloor
C:\Users\kees2125\AppData\Local\Temp/cccfvQxc.s:1175   .text:00000588 main

UNDEFINED SYMBOLS
__do_copy_data
__do_clear_bss
__tablejump2__
